ARM GAS  C:\Users\pajoh\AppData\Local\Temp\ccCqKsHG.s 			page 1


   1              		.syntax unified
   2              		.cpu cortex-m3
   3              		.fpu softvfp
   4              		.eabi_attribute 20, 1
   5              		.eabi_attribute 21, 1
   6              		.eabi_attribute 23, 3
   7              		.eabi_attribute 24, 1
   8              		.eabi_attribute 25, 1
   9              		.eabi_attribute 26, 1
  10              		.eabi_attribute 30, 1
  11              		.eabi_attribute 34, 1
  12              		.eabi_attribute 18, 4
  13              		.thumb
  14              		.syntax unified
  15              		.file	"as5048.c"
  16              		.text
  17              	.Ltext0:
  18              		.cfi_sections	.debug_frame
  19              		.section	.text.spiCalcEvenParity,"ax",%progbits
  20              		.align	2
  21              		.global	spiCalcEvenParity
  22              		.thumb
  23              		.thumb_func
  24              		.type	spiCalcEvenParity, %function
  25              	spiCalcEvenParity:
  26              	.LFB0:
  27              		.file 1 "as5048.c"
   1:as5048.c      **** /* ========================================
   2:as5048.c      ****  *
   3:as5048.c      ****  * Copyright YOUR COMPANY, THE YEAR
   4:as5048.c      ****  * All Rights Reserved
   5:as5048.c      ****  * UNPUBLISHED, LICENSED SOFTWARE.
   6:as5048.c      ****  *
   7:as5048.c      ****  * CONFIDENTIAL AND PROPRIETARY INFORMATION
   8:as5048.c      ****  * WHICH IS THE PROPERTY OF your company.
   9:as5048.c      ****  *
  10:as5048.c      ****  * ========================================
  11:as5048.c      **** */
  12:as5048.c      **** 
  13:as5048.c      **** #include "as5048.h"
  14:as5048.c      **** 
  15:as5048.c      **** uint8 spiCalcEvenParity(uint16 value){
  28              		.loc 1 15 0
  29              		.cfi_startproc
  30              		@ args = 0, pretend = 0, frame = 0
  31              		@ frame_needed = 0, uses_anonymous_args = 0
  32              		@ link register save eliminated.
  33              	.LVL0:
  16:as5048.c      ****     uint8 cnt = 0;
  17:as5048.c      ****     uint8 i;
  18:as5048.c      ****     for (i = 0; i < 16; i++)
  34              		.loc 1 18 0
  35 0000 0023     		movs	r3, #0
  16:as5048.c      ****     uint8 cnt = 0;
  36              		.loc 1 16 0
  37 0002 1A46     		mov	r2, r3
  38              		.loc 1 18 0
ARM GAS  C:\Users\pajoh\AppData\Local\Temp\ccCqKsHG.s 			page 2


  39 0004 07E0     		b	.L2
  40              	.LVL1:
  41              	.L4:
  19:as5048.c      ****     {
  20:as5048.c      ****         if (value & 0x1)
  42              		.loc 1 20 0
  43 0006 10F0010F 		tst	r0, #1
  44 000a 01D0     		beq	.L3
  21:as5048.c      ****         {
  22:as5048.c      ****         cnt++;
  45              		.loc 1 22 0
  46 000c 0132     		adds	r2, r2, #1
  47              	.LVL2:
  48 000e D2B2     		uxtb	r2, r2
  49              	.LVL3:
  50              	.L3:
  23:as5048.c      ****         }
  24:as5048.c      ****     value >>= 1;
  51              		.loc 1 24 0 discriminator 2
  52 0010 4008     		lsrs	r0, r0, #1
  53              	.LVL4:
  18:as5048.c      ****     {
  54              		.loc 1 18 0 discriminator 2
  55 0012 0133     		adds	r3, r3, #1
  56              	.LVL5:
  57 0014 DBB2     		uxtb	r3, r3
  58              	.LVL6:
  59              	.L2:
  18:as5048.c      ****     {
  60              		.loc 1 18 0 is_stmt 0 discriminator 1
  61 0016 0F2B     		cmp	r3, #15
  62 0018 F5D9     		bls	.L4
  25:as5048.c      ****     }
  26:as5048.c      ****     return cnt & 0x1;
  27:as5048.c      **** }
  63              		.loc 1 27 0 is_stmt 1
  64 001a 02F00100 		and	r0, r2, #1
  65              	.LVL7:
  66 001e 7047     		bx	lr
  67              		.cfi_endproc
  68              	.LFE0:
  69              		.size	spiCalcEvenParity, .-spiCalcEvenParity
  70              		.section	.text.get_angle,"ax",%progbits
  71              		.align	2
  72              		.global	get_angle
  73              		.thumb
  74              		.thumb_func
  75              		.type	get_angle, %function
  76              	get_angle:
  77              	.LFB1:
  28:as5048.c      **** 
  29:as5048.c      **** uint16 get_angle(int encoder){
  78              		.loc 1 29 0
  79              		.cfi_startproc
  80              		@ args = 0, pretend = 0, frame = 0
  81              		@ frame_needed = 0, uses_anonymous_args = 0
  82              	.LVL8:
ARM GAS  C:\Users\pajoh\AppData\Local\Temp\ccCqKsHG.s 			page 3


  83 0000 10B5     		push	{r4, lr}
  84              		.cfi_def_cfa_offset 8
  85              		.cfi_offset 4, -8
  86              		.cfi_offset 14, -4
  87 0002 0446     		mov	r4, r0
  88              	.LVL9:
  30:as5048.c      ****     int16 angle = 0;
  31:as5048.c      ****     CS_J2_Write(1);
  89              		.loc 1 31 0
  90 0004 0120     		movs	r0, #1
  91              	.LVL10:
  92 0006 FFF7FEFF 		bl	CS_J2_Write
  93              	.LVL11:
  32:as5048.c      ****     CS_J3_Write(1);
  94              		.loc 1 32 0
  95 000a 0120     		movs	r0, #1
  96 000c FFF7FEFF 		bl	CS_J3_Write
  97              	.LVL12:
  33:as5048.c      ****     if(encoder == 0){
  98              		.loc 1 33 0
  99 0010 B4B9     		cbnz	r4, .L9
  34:as5048.c      ****         CS_J2_Write(0);
 100              		.loc 1 34 0
 101 0012 0020     		movs	r0, #0
 102 0014 FFF7FEFF 		bl	CS_J2_Write
 103              	.LVL13:
  35:as5048.c      ****         SPIM_1_WriteTxData(read_angle_command);
 104              		.loc 1 35 0
 105 0018 0B4B     		ldr	r3, .L11
 106 001a 1888     		ldrh	r0, [r3]
 107 001c FFF7FEFF 		bl	SPIM_1_WriteTxData
 108              	.LVL14:
 109              	.L7:
  36:as5048.c      ****         while(!(SPIM_1_ReadTxStatus() & SPIM_1_STS_SPI_DONE)){}
 110              		.loc 1 36 0 discriminator 1
 111 0020 FFF7FEFF 		bl	SPIM_1_ReadTxStatus
 112              	.LVL15:
 113 0024 10F0010F 		tst	r0, #1
 114 0028 FAD0     		beq	.L7
  37:as5048.c      ****         CS_J2_Write(1);
 115              		.loc 1 37 0
 116 002a 0120     		movs	r0, #1
 117 002c FFF7FEFF 		bl	CS_J2_Write
 118              	.LVL16:
 119              	.L8:
  38:as5048.c      ****         while(SPIM_1_GetRxBufferSize() == 0){}
 120              		.loc 1 38 0 discriminator 1
 121 0030 FFF7FEFF 		bl	SPIM_1_GetRxBufferSize
 122              	.LVL17:
 123 0034 0028     		cmp	r0, #0
 124 0036 FBD0     		beq	.L8
  39:as5048.c      ****         angle = SPIM_1_ReadRxData();
 125              		.loc 1 39 0
 126 0038 FFF7FEFF 		bl	SPIM_1_ReadRxData
 127              	.LVL18:
 128 003c 00B2     		sxth	r0, r0
 129              	.LVL19:
ARM GAS  C:\Users\pajoh\AppData\Local\Temp\ccCqKsHG.s 			page 4


 130 003e 00E0     		b	.L6
 131              	.LVL20:
 132              	.L9:
  30:as5048.c      ****     CS_J2_Write(1);
 133              		.loc 1 30 0
 134 0040 0020     		movs	r0, #0
 135              	.LVL21:
 136              	.L6:
  40:as5048.c      ****     }
  41:as5048.c      ****     else if(encoder == 1){
  42:as5048.c      ****         //CS_J3_Write(0);
  43:as5048.c      ****         //SPIM_1_WriteTxData(read_angle_command);
  44:as5048.c      ****         //while(SPIM_1_ReadTxStatus() != SPIM_1_STS_SPI_DONE){}
  45:as5048.c      ****         //CS_J3_Write(1);
  46:as5048.c      ****         //while(SPIM_1_GetRxBufferSize() == 0){}
  47:as5048.c      ****         //angle = SPIM_1_ReadRxData() & 0x3FFF;
  48:as5048.c      ****     }
  49:as5048.c      ****     else{
  50:as5048.c      ****         ;
  51:as5048.c      ****     }
  52:as5048.c      ****     return angle;
  53:as5048.c      **** }
 137              		.loc 1 53 0
 138 0042 80B2     		uxth	r0, r0
 139 0044 10BD     		pop	{r4, pc}
 140              	.LVL22:
 141              	.L12:
 142 0046 00BF     		.align	2
 143              	.L11:
 144 0048 00000000 		.word	read_angle_command
 145              		.cfi_endproc
 146              	.LFE1:
 147              		.size	get_angle, .-get_angle
 148              		.section	.text.send_cmd,"ax",%progbits
 149              		.align	2
 150              		.global	send_cmd
 151              		.thumb
 152              		.thumb_func
 153              		.type	send_cmd, %function
 154              	send_cmd:
 155              	.LFB2:
  54:as5048.c      **** 
  55:as5048.c      **** uint16 send_cmd(uint16 data, char enc){
 156              		.loc 1 55 0
 157              		.cfi_startproc
 158              		@ args = 0, pretend = 0, frame = 0
 159              		@ frame_needed = 0, uses_anonymous_args = 0
 160              	.LVL23:
 161 0000 38B5     		push	{r3, r4, r5, lr}
 162              		.cfi_def_cfa_offset 16
 163              		.cfi_offset 3, -16
 164              		.cfi_offset 4, -12
 165              		.cfi_offset 5, -8
 166              		.cfi_offset 14, -4
 167 0002 0546     		mov	r5, r0
 168 0004 0C46     		mov	r4, r1
  56:as5048.c      ****     uint16 result;
ARM GAS  C:\Users\pajoh\AppData\Local\Temp\ccCqKsHG.s 			page 5


  57:as5048.c      ****     uint16 newData;
  58:as5048.c      ****     newData = data|spiCalcEvenParity(data)<<15;
 169              		.loc 1 58 0
 170 0006 FFF7FEFF 		bl	spiCalcEvenParity
 171              	.LVL24:
 172 000a 45EAC030 		orr	r0, r5, r0, lsl #15
 173 000e 85B2     		uxth	r5, r0
 174              	.LVL25:
  59:as5048.c      ****     //send data cmd, then send nop and rx from nop
  60:as5048.c      ****     if(enc == 0){
 175              		.loc 1 60 0
 176 0010 1CB9     		cbnz	r4, .L14
  61:as5048.c      ****         CS_J2_Write(0);   
 177              		.loc 1 61 0
 178 0012 0020     		movs	r0, #0
 179 0014 FFF7FEFF 		bl	CS_J2_Write
 180              	.LVL26:
 181 0018 04E0     		b	.L15
 182              	.L14:
  62:as5048.c      ****     }
  63:as5048.c      ****     else if(enc == 1){
 183              		.loc 1 63 0
 184 001a 012C     		cmp	r4, #1
 185 001c 02D1     		bne	.L15
  64:as5048.c      ****         CS_J3_Write(0);   
 186              		.loc 1 64 0
 187 001e 0020     		movs	r0, #0
 188 0020 FFF7FEFF 		bl	CS_J3_Write
 189              	.LVL27:
 190              	.L15:
  65:as5048.c      ****     }
  66:as5048.c      ****     SPIM_1_WriteTxData(newData);
 191              		.loc 1 66 0
 192 0024 2846     		mov	r0, r5
 193 0026 FFF7FEFF 		bl	SPIM_1_WriteTxData
 194              	.LVL28:
 195              	.L16:
  67:as5048.c      ****     while(0 == (SPIM_1_ReadTxStatus() & SPIM_1_STS_SPI_DONE)){} // wait for bytes to send
 196              		.loc 1 67 0 discriminator 1
 197 002a FFF7FEFF 		bl	SPIM_1_ReadTxStatus
 198              	.LVL29:
 199 002e 10F0010F 		tst	r0, #1
 200 0032 FAD0     		beq	.L16
  68:as5048.c      ****     if(enc == 0){
 201              		.loc 1 68 0
 202 0034 1CB9     		cbnz	r4, .L17
  69:as5048.c      ****         CS_J2_Write(1);   
 203              		.loc 1 69 0
 204 0036 0120     		movs	r0, #1
 205 0038 FFF7FEFF 		bl	CS_J2_Write
 206              	.LVL30:
 207 003c 04E0     		b	.L19
 208              	.L17:
  70:as5048.c      ****     }
  71:as5048.c      ****     else if(enc == 1){
 209              		.loc 1 71 0
 210 003e 012C     		cmp	r4, #1
ARM GAS  C:\Users\pajoh\AppData\Local\Temp\ccCqKsHG.s 			page 6


 211 0040 02D1     		bne	.L19
  72:as5048.c      ****         CS_J3_Write(1);   
 212              		.loc 1 72 0
 213 0042 0120     		movs	r0, #1
 214 0044 FFF7FEFF 		bl	CS_J3_Write
 215              	.LVL31:
 216              	.L19:
  73:as5048.c      ****     }
  74:as5048.c      ****     while(0 == (SPIM_1_ReadRxStatus() & SPIM_1_STS_RX_FIFO_NOT_EMPTY)){};
 217              		.loc 1 74 0 discriminator 1
 218 0048 FFF7FEFF 		bl	SPIM_1_ReadRxStatus
 219              	.LVL32:
 220 004c 10F0200F 		tst	r0, #32
 221 0050 FAD0     		beq	.L19
  75:as5048.c      ****     result = SPIM_1_ReadRxData(); //useful data not transferred here
 222              		.loc 1 75 0
 223 0052 FFF7FEFF 		bl	SPIM_1_ReadRxData
 224              	.LVL33:
  76:as5048.c      ****     if(enc == 0){
 225              		.loc 1 76 0
 226 0056 1CB9     		cbnz	r4, .L20
  77:as5048.c      ****         CS_J2_Write(0);   
 227              		.loc 1 77 0
 228 0058 0020     		movs	r0, #0
 229 005a FFF7FEFF 		bl	CS_J2_Write
 230              	.LVL34:
 231 005e 04E0     		b	.L21
 232              	.L20:
  78:as5048.c      ****     }
  79:as5048.c      ****     else if(enc == 1){
 233              		.loc 1 79 0
 234 0060 012C     		cmp	r4, #1
 235 0062 02D1     		bne	.L21
  80:as5048.c      ****         CS_J3_Write(0);   
 236              		.loc 1 80 0
 237 0064 0020     		movs	r0, #0
 238 0066 FFF7FEFF 		bl	CS_J3_Write
 239              	.LVL35:
 240              	.L21:
  81:as5048.c      ****     }
  82:as5048.c      ****     SPIM_1_WriteTxData(SPI_NOP|SPI_CMD_READ|spiCalcEvenParity(SPI_NOP|SPI_CMD_READ)<<15); //send du
 241              		.loc 1 82 0
 242 006a 4FF48040 		mov	r0, #16384
 243 006e FFF7FEFF 		bl	spiCalcEvenParity
 244              	.LVL36:
 245 0072 C003     		lsls	r0, r0, #15
 246 0074 40F48040 		orr	r0, r0, #16384
 247 0078 00F44040 		and	r0, r0, #49152
 248 007c FFF7FEFF 		bl	SPIM_1_WriteTxData
 249              	.LVL37:
 250              	.L22:
  83:as5048.c      ****     while(0 == (SPIM_1_ReadTxStatus() & SPIM_1_STS_SPI_DONE)){} //wait for word to transmit
 251              		.loc 1 83 0 discriminator 1
 252 0080 FFF7FEFF 		bl	SPIM_1_ReadTxStatus
 253              	.LVL38:
 254 0084 10F0010F 		tst	r0, #1
 255 0088 FAD0     		beq	.L22
ARM GAS  C:\Users\pajoh\AppData\Local\Temp\ccCqKsHG.s 			page 7


  84:as5048.c      ****     if(enc == 0){
 256              		.loc 1 84 0
 257 008a 1CB9     		cbnz	r4, .L23
  85:as5048.c      ****         CS_J2_Write(1);   
 258              		.loc 1 85 0
 259 008c 0120     		movs	r0, #1
 260 008e FFF7FEFF 		bl	CS_J2_Write
 261              	.LVL39:
 262 0092 04E0     		b	.L25
 263              	.L23:
  86:as5048.c      ****     }
  87:as5048.c      ****     else if(enc == 1){
 264              		.loc 1 87 0
 265 0094 012C     		cmp	r4, #1
 266 0096 02D1     		bne	.L25
  88:as5048.c      ****         CS_J3_Write(1);   
 267              		.loc 1 88 0
 268 0098 0120     		movs	r0, #1
 269 009a FFF7FEFF 		bl	CS_J3_Write
 270              	.LVL40:
 271              	.L25:
  89:as5048.c      ****     }
  90:as5048.c      ****     while(0 == (SPIM_1_ReadRxStatus() & SPIM_1_STS_RX_FIFO_NOT_EMPTY)){};
 272              		.loc 1 90 0 discriminator 1
 273 009e FFF7FEFF 		bl	SPIM_1_ReadRxStatus
 274              	.LVL41:
 275 00a2 10F0200F 		tst	r0, #32
 276 00a6 FAD0     		beq	.L25
  91:as5048.c      ****     result = SPIM_1_ReadRxData();
 277              		.loc 1 91 0
 278 00a8 FFF7FEFF 		bl	SPIM_1_ReadRxData
 279              	.LVL42:
  92:as5048.c      ****     return result;
  93:as5048.c      **** }
 280              		.loc 1 93 0
 281 00ac 38BD     		pop	{r3, r4, r5, pc}
 282              		.cfi_endproc
 283              	.LFE2:
 284              		.size	send_cmd, .-send_cmd
 285              		.comm	read_angle_command,2,2
 286 00ae 00BF     		.text
 287              	.Letext0:
 288              		.file 2 "Generated_Source\\PSoC5/cytypes.h"
 289              		.file 3 "Generated_Source\\PSoC5/CS_J2.h"
 290              		.file 4 "Generated_Source\\PSoC5/CS_J3.h"
 291              		.file 5 "Generated_Source\\PSoC5/SPIM_1.h"
 292              		.file 6 "as5048.h"