ARM GAS  C:\Users\pajoh\AppData\Local\Temp\ccwnrqgo.s 			page 1


   1              		.syntax unified
   2              		.cpu cortex-m3
   3              		.fpu softvfp
   4              		.eabi_attribute 20, 1
   5              		.eabi_attribute 21, 1
   6              		.eabi_attribute 23, 3
   7              		.eabi_attribute 24, 1
   8              		.eabi_attribute 25, 1
   9              		.eabi_attribute 26, 1
  10              		.eabi_attribute 30, 1
  11              		.eabi_attribute 34, 1
  12              		.eabi_attribute 18, 4
  13              		.thumb
  14              		.syntax unified
  15              		.file	"comms.c"
  16              		.text
  17              	.Ltext0:
  18              		.cfi_sections	.debug_frame
  19              		.section	.text.message_buff_init,"ax",%progbits
  20              		.align	2
  21              		.global	message_buff_init
  22              		.thumb
  23              		.thumb_func
  24              		.type	message_buff_init, %function
  25              	message_buff_init:
  26              	.LFB1:
  27              		.file 1 "comms.c"
   1:comms.c       **** /* ========================================
   2:comms.c       ****  *
   3:comms.c       ****  * Copyright YOUR COMPANY, THE YEAR
   4:comms.c       ****  * All Rights Reserved
   5:comms.c       ****  * UNPUBLISHED, LICENSED SOFTWARE.
   6:comms.c       ****  *
   7:comms.c       ****  * CONFIDENTIAL AND PROPRIETARY INFORMATION
   8:comms.c       ****  * WHICH IS THE PROPERTY OF your company.
   9:comms.c       ****  *
  10:comms.c       ****  * ========================================
  11:comms.c       **** */
  12:comms.c       **** #include "comms.h"
  13:comms.c       **** 
  14:comms.c       **** void message_buff_init(Message_Buff * msg_buff){
  28              		.loc 1 14 0
  29              		.cfi_startproc
  30              		@ args = 0, pretend = 0, frame = 0
  31              		@ frame_needed = 0, uses_anonymous_args = 0
  32              		@ link register save eliminated.
  33              	.LVL0:
  34 0000 10B4     		push	{r4}
  35              		.cfi_def_cfa_offset 4
  36              		.cfi_offset 4, -4
  37              	.LVL1:
  15:comms.c       ****     //set command to nop, joint to 0, data all to 0
  16:comms.c       ****     int i = 0;
  17:comms.c       ****     int j = 0;
  18:comms.c       ****     msg_buff->head = 0;
  38              		.loc 1 18 0
  39 0002 0024     		movs	r4, #0
ARM GAS  C:\Users\pajoh\AppData\Local\Temp\ccwnrqgo.s 			page 2


  40 0004 A0F8D047 		strh	r4, [r0, #2000]	@ movhi
  19:comms.c       ****     msg_buff->tail = 0;
  41              		.loc 1 19 0
  42 0008 A0F8D247 		strh	r4, [r0, #2002]	@ movhi
  20:comms.c       ****     msg_buff->size = 0;
  43              		.loc 1 20 0
  44 000c A0F8D447 		strh	r4, [r0, #2004]	@ movhi
  21:comms.c       ****     for(i = 0; i < MSG_BUFF_SIZE; i++){
  45              		.loc 1 21 0
  46 0010 12E0     		b	.L2
  47              	.LVL2:
  48              	.L5:
  22:comms.c       ****         msg_buff->msgs[i].command = NOP;
  49              		.loc 1 22 0
  50 0012 A300     		lsls	r3, r4, #2
  51 0014 2344     		add	r3, r3, r4
  52 0016 9900     		lsls	r1, r3, #2
  53 0018 4318     		adds	r3, r0, r1
  54 001a 0022     		movs	r2, #0
  55 001c 4252     		strh	r2, [r0, r1]	@ movhi
  23:comms.c       ****         msg_buff->msgs[i].joint = 0;
  56              		.loc 1 23 0
  57 001e 9A70     		strb	r2, [r3, #2]
  58              	.LVL3:
  24:comms.c       ****         for(j = 0; j < DATA_SIZE; j++){
  59              		.loc 1 24 0
  60 0020 07E0     		b	.L3
  61              	.LVL4:
  62              	.L4:
  25:comms.c       ****             msg_buff->msgs[i].data[j] = 0;
  63              		.loc 1 25 0 discriminator 3
  64 0022 04EB8401 		add	r1, r4, r4, lsl #2
  65 0026 8B00     		lsls	r3, r1, #2
  66 0028 0344     		add	r3, r3, r0
  67 002a 1344     		add	r3, r3, r2
  68 002c 0021     		movs	r1, #0
  69 002e D970     		strb	r1, [r3, #3]
  24:comms.c       ****         for(j = 0; j < DATA_SIZE; j++){
  70              		.loc 1 24 0 discriminator 3
  71 0030 0132     		adds	r2, r2, #1
  72              	.LVL5:
  73              	.L3:
  24:comms.c       ****         for(j = 0; j < DATA_SIZE; j++){
  74              		.loc 1 24 0 is_stmt 0 discriminator 1
  75 0032 0F2A     		cmp	r2, #15
  76 0034 F5DD     		ble	.L4
  21:comms.c       ****         msg_buff->msgs[i].command = NOP;
  77              		.loc 1 21 0 is_stmt 1 discriminator 2
  78 0036 0134     		adds	r4, r4, #1
  79              	.LVL6:
  80              	.L2:
  21:comms.c       ****         msg_buff->msgs[i].command = NOP;
  81              		.loc 1 21 0 is_stmt 0 discriminator 1
  82 0038 632C     		cmp	r4, #99
  83 003a EADD     		ble	.L5
  26:comms.c       ****         }
  27:comms.c       ****     }
ARM GAS  C:\Users\pajoh\AppData\Local\Temp\ccwnrqgo.s 			page 3


  28:comms.c       **** }
  84              		.loc 1 28 0 is_stmt 1
  85 003c 10BC     		pop	{r4}
  86              		.cfi_restore 4
  87              		.cfi_def_cfa_offset 0
  88              	.LVL7:
  89 003e 7047     		bx	lr
  90              		.cfi_endproc
  91              	.LFE1:
  92              		.size	message_buff_init, .-message_buff_init
  93              		.section	.text.message_buff_add,"ax",%progbits
  94              		.align	2
  95              		.global	message_buff_add
  96              		.thumb
  97              		.thumb_func
  98              		.type	message_buff_add, %function
  99              	message_buff_add:
 100              	.LFB2:
  29:comms.c       **** 
  30:comms.c       **** void message_buff_add(Message_Buff * msg_buff, Message * msg){
 101              		.loc 1 30 0
 102              		.cfi_startproc
 103              		@ args = 0, pretend = 0, frame = 0
 104              		@ frame_needed = 0, uses_anonymous_args = 0
 105              		@ link register save eliminated.
 106              	.LVL8:
 107 0000 70B4     		push	{r4, r5, r6}
 108              		.cfi_def_cfa_offset 12
 109              		.cfi_offset 4, -12
 110              		.cfi_offset 5, -8
 111              		.cfi_offset 6, -4
  31:comms.c       ****     //figure this out later
  32:comms.c       ****     int i;
  33:comms.c       ****     msg_buff->msgs[msg_buff->head].command = msg->command;
 112              		.loc 1 33 0
 113 0002 B0F8D057 		ldrh	r5, [r0, #2000]
 114 0006 0C88     		ldrh	r4, [r1]
 115 0008 AB00     		lsls	r3, r5, #2
 116 000a 2B44     		add	r3, r3, r5
 117 000c 9A00     		lsls	r2, r3, #2
 118 000e 8318     		adds	r3, r0, r2
 119 0010 8452     		strh	r4, [r0, r2]	@ movhi
  34:comms.c       ****     msg_buff->msgs[msg_buff->head].joint = msg->joint;
 120              		.loc 1 34 0
 121 0012 8A78     		ldrb	r2, [r1, #2]	@ zero_extendqisi2
 122 0014 9A70     		strb	r2, [r3, #2]
 123              	.LVL9:
  35:comms.c       ****     for(i = 0; i < DATA_SIZE; i++){
 124              		.loc 1 35 0
 125 0016 0022     		movs	r2, #0
 126 0018 08E0     		b	.L8
 127              	.LVL10:
 128              	.L9:
  36:comms.c       ****         msg_buff->msgs[msg_buff->head].data[i] = msg->data[i];
 129              		.loc 1 36 0 discriminator 3
 130 001a 8B18     		adds	r3, r1, r2
 131 001c DE78     		ldrb	r6, [r3, #3]	@ zero_extendqisi2
ARM GAS  C:\Users\pajoh\AppData\Local\Temp\ccwnrqgo.s 			page 4


 132 001e 05EB8504 		add	r4, r5, r5, lsl #2
 133 0022 A300     		lsls	r3, r4, #2
 134 0024 0344     		add	r3, r3, r0
 135 0026 1344     		add	r3, r3, r2
 136 0028 DE70     		strb	r6, [r3, #3]
  35:comms.c       ****     for(i = 0; i < DATA_SIZE; i++){
 137              		.loc 1 35 0 discriminator 3
 138 002a 0132     		adds	r2, r2, #1
 139              	.LVL11:
 140              	.L8:
  35:comms.c       ****     for(i = 0; i < DATA_SIZE; i++){
 141              		.loc 1 35 0 is_stmt 0 discriminator 1
 142 002c 0F2A     		cmp	r2, #15
 143 002e F4DD     		ble	.L9
  37:comms.c       ****     }
  38:comms.c       ****     msg_buff->head = (msg_buff->head + 1) % MSG_BUFF_SIZE;
 144              		.loc 1 38 0 is_stmt 1
 145 0030 0135     		adds	r5, r5, #1
 146 0032 094B     		ldr	r3, .L11
 147 0034 83FB0532 		smull	r3, r2, r3, r5
 148              	.LVL12:
 149 0038 EB17     		asrs	r3, r5, #31
 150 003a C3EB6213 		rsb	r3, r3, r2, asr #5
 151 003e 6422     		movs	r2, #100
 152 0040 02FB1353 		mls	r3, r2, r3, r5
 153 0044 A0F8D037 		strh	r3, [r0, #2000]	@ movhi
  39:comms.c       ****     msg_buff->size += 1;
 154              		.loc 1 39 0
 155 0048 B0F8D437 		ldrh	r3, [r0, #2004]
 156 004c 0133     		adds	r3, r3, #1
 157 004e A0F8D437 		strh	r3, [r0, #2004]	@ movhi
  40:comms.c       ****     return;
  41:comms.c       **** }
 158              		.loc 1 41 0
 159 0052 70BC     		pop	{r4, r5, r6}
 160              		.cfi_restore 6
 161              		.cfi_restore 5
 162              		.cfi_restore 4
 163              		.cfi_def_cfa_offset 0
 164 0054 7047     		bx	lr
 165              	.L12:
 166 0056 00BF     		.align	2
 167              	.L11:
 168 0058 1F85EB51 		.word	1374389535
 169              		.cfi_endproc
 170              	.LFE2:
 171              		.size	message_buff_add, .-message_buff_add
 172              		.section	.text.move_queue_init,"ax",%progbits
 173              		.align	2
 174              		.global	move_queue_init
 175              		.thumb
 176              		.thumb_func
 177              		.type	move_queue_init, %function
 178              	move_queue_init:
 179              	.LFB4:
  42:comms.c       **** 
  43:comms.c       **** void message_buff_execute(Message_Buff * msg_buff){
ARM GAS  C:\Users\pajoh\AppData\Local\Temp\ccwnrqgo.s 			page 5


  44:comms.c       ****     //execute oldest message received
  45:comms.c       ****     uint8 joint;
  46:comms.c       ****     uint8 direction;
  47:comms.c       ****     uint32 tuningWord;
  48:comms.c       ****     uint32 duration;
  49:comms.c       ****     if(msg_buff->msgs[msg_buff->tail].command == SET_VELOCITY){
  50:comms.c       ****         //add message to move queue
  51:comms.c       ****         //move queue is global
  52:comms.c       ****         joint = msg_buff->msgs[msg_buff->tail].joint;
  53:comms.c       ****         direction = msg_buff->msgs[msg_buff->tail].data[0];
  54:comms.c       ****         tuningWord =    (msg_buff->msgs[msg_buff->tail].data[1]<<16) + \
  55:comms.c       ****                         (msg_buff->msgs[msg_buff->tail].data[2]<<8) + \
  56:comms.c       ****                         msg_buff->msgs[msg_buff->tail].data[3];
  57:comms.c       ****         duration =      (msg_buff->msgs[msg_buff->tail].data[4]<<24) + \
  58:comms.c       ****                         (msg_buff->msgs[msg_buff->tail].data[5]<<16) + \
  59:comms.c       ****                         (msg_buff->msgs[msg_buff->tail].data[6]<<8) + \
  60:comms.c       ****                         msg_buff->msgs[msg_buff->tail].data[7];
  61:comms.c       ****         move_queue_add(&move_queue,joint,direction,tuningWord,duration);
  62:comms.c       ****         msg_buff->tail = (msg_buff->tail + 1) % MSG_BUFF_SIZE;
  63:comms.c       ****         msg_buff->size -= 1;
  64:comms.c       ****     }
  65:comms.c       **** }
  66:comms.c       **** 
  67:comms.c       **** void move_queue_init(Move_Queue * move_queue){
 180              		.loc 1 67 0
 181              		.cfi_startproc
 182              		@ args = 0, pretend = 0, frame = 0
 183              		@ frame_needed = 0, uses_anonymous_args = 0
 184              		@ link register save eliminated.
 185              	.LVL13:
 186 0000 10B4     		push	{r4}
 187              		.cfi_def_cfa_offset 4
 188              		.cfi_offset 4, -4
  68:comms.c       ****     int i;
  69:comms.c       ****     move_queue->head = 0;
 189              		.loc 1 69 0
 190 0002 0023     		movs	r3, #0
 191 0004 A0F8B034 		strh	r3, [r0, #1200]	@ movhi
  70:comms.c       ****     move_queue->tail = 0;
 192              		.loc 1 70 0
 193 0008 A0F8B234 		strh	r3, [r0, #1202]	@ movhi
  71:comms.c       ****     move_queue->size = 0;
 194              		.loc 1 71 0
 195 000c A0F8B434 		strh	r3, [r0, #1204]	@ movhi
 196              	.LVL14:
  72:comms.c       ****     for(i = 0; i < MOVE_QUEUE_SIZE; i++){
 197              		.loc 1 72 0
 198 0010 09E0     		b	.L14
 199              	.LVL15:
 200              	.L15:
  73:comms.c       ****         move_queue->moves[i].direction = 0;
 201              		.loc 1 73 0 discriminator 3
 202 0012 5A00     		lsls	r2, r3, #1
 203 0014 1A44     		add	r2, r2, r3
 204 0016 9400     		lsls	r4, r2, #2
 205 0018 0119     		adds	r1, r0, r4
 206 001a 0022     		movs	r2, #0
ARM GAS  C:\Users\pajoh\AppData\Local\Temp\ccwnrqgo.s 			page 6


 207 001c 4A70     		strb	r2, [r1, #1]
  74:comms.c       ****         move_queue->moves[i].duration = 0;
 208              		.loc 1 74 0 discriminator 3
 209 001e 8A60     		str	r2, [r1, #8]
  75:comms.c       ****         move_queue->moves[i].joint = 0;
 210              		.loc 1 75 0 discriminator 3
 211 0020 0255     		strb	r2, [r0, r4]
  76:comms.c       ****         move_queue->moves[i].tuningWord = 0;
 212              		.loc 1 76 0 discriminator 3
 213 0022 4A60     		str	r2, [r1, #4]
  72:comms.c       ****         move_queue->moves[i].direction = 0;
 214              		.loc 1 72 0 discriminator 3
 215 0024 0133     		adds	r3, r3, #1
 216              	.LVL16:
 217              	.L14:
  72:comms.c       ****         move_queue->moves[i].direction = 0;
 218              		.loc 1 72 0 is_stmt 0 discriminator 1
 219 0026 632B     		cmp	r3, #99
 220 0028 F3DD     		ble	.L15
  77:comms.c       ****     }
  78:comms.c       **** }
 221              		.loc 1 78 0 is_stmt 1
 222 002a 10BC     		pop	{r4}
 223              		.cfi_restore 4
 224              		.cfi_def_cfa_offset 0
 225 002c 7047     		bx	lr
 226              		.cfi_endproc
 227              	.LFE4:
 228              		.size	move_queue_init, .-move_queue_init
 229 002e 00BF     		.section	.text.move_queue_add,"ax",%progbits
 230              		.align	2
 231              		.global	move_queue_add
 232              		.thumb
 233              		.thumb_func
 234              		.type	move_queue_add, %function
 235              	move_queue_add:
 236              	.LFB5:
  79:comms.c       **** int16 move_queue_add(Move_Queue * move_queue, uint8 joint, uint8 direction, uint32 tuningWord, uint
 237              		.loc 1 79 0
 238              		.cfi_startproc
 239              		@ args = 4, pretend = 0, frame = 0
 240              		@ frame_needed = 0, uses_anonymous_args = 0
 241              		@ link register save eliminated.
 242              	.LVL17:
 243 0000 F0B4     		push	{r4, r5, r6, r7}
 244              		.cfi_def_cfa_offset 16
 245              		.cfi_offset 4, -16
 246              		.cfi_offset 5, -12
 247              		.cfi_offset 6, -8
 248              		.cfi_offset 7, -4
  80:comms.c       ****     //return 0 if successful, 1 otherwise
  81:comms.c       ****     if(move_queue->size < MOVE_QUEUE_SIZE){
 249              		.loc 1 81 0
 250 0002 B0F8B454 		ldrh	r5, [r0, #1204]
 251 0006 632D     		cmp	r5, #99
 252 0008 1BD8     		bhi	.L19
  82:comms.c       ****         move_queue->moves[move_queue->head].direction = direction;
ARM GAS  C:\Users\pajoh\AppData\Local\Temp\ccwnrqgo.s 			page 7


 253              		.loc 1 82 0
 254 000a B0F8B044 		ldrh	r4, [r0, #1200]
 255 000e 6600     		lsls	r6, r4, #1
 256 0010 2644     		add	r6, r6, r4
 257 0012 B700     		lsls	r7, r6, #2
 258 0014 C619     		adds	r6, r0, r7
 259 0016 7270     		strb	r2, [r6, #1]
  83:comms.c       ****         move_queue->moves[move_queue->head].duration = duration;
 260              		.loc 1 83 0
 261 0018 049A     		ldr	r2, [sp, #16]
 262              	.LVL18:
 263 001a B260     		str	r2, [r6, #8]
  84:comms.c       ****         move_queue->moves[move_queue->head].joint = joint;
 264              		.loc 1 84 0
 265 001c C155     		strb	r1, [r0, r7]
  85:comms.c       ****         move_queue->moves[move_queue->head].tuningWord = tuningWord;
 266              		.loc 1 85 0
 267 001e 7360     		str	r3, [r6, #4]
  86:comms.c       ****         move_queue->head = (move_queue->head + 1) % MOVE_QUEUE_SIZE;
 268              		.loc 1 86 0
 269 0020 631C     		adds	r3, r4, #1
 270              	.LVL19:
 271 0022 0A4A     		ldr	r2, .L21
 272 0024 82FB0321 		smull	r2, r1, r2, r3
 273              	.LVL20:
 274 0028 DA17     		asrs	r2, r3, #31
 275 002a C2EB6112 		rsb	r2, r2, r1, asr #5
 276 002e 6421     		movs	r1, #100
 277 0030 01FB1232 		mls	r2, r1, r2, r3
 278 0034 A0F8B024 		strh	r2, [r0, #1200]	@ movhi
 279              	.LVL21:
  87:comms.c       ****         move_queue->size += 1;
 280              		.loc 1 87 0
 281 0038 0135     		adds	r5, r5, #1
 282 003a A0F8B454 		strh	r5, [r0, #1204]	@ movhi
  88:comms.c       ****         return 0;
 283              		.loc 1 88 0
 284 003e 0020     		movs	r0, #0
 285              	.LVL22:
 286 0040 01E0     		b	.L18
 287              	.LVL23:
 288              	.L19:
  89:comms.c       ****     }
  90:comms.c       ****     else{
  91:comms.c       ****         return -1;
 289              		.loc 1 91 0
 290 0042 4FF0FF30 		mov	r0, #-1
 291              	.LVL24:
 292              	.L18:
  92:comms.c       ****     }
  93:comms.c       **** }
 293              		.loc 1 93 0
 294 0046 F0BC     		pop	{r4, r5, r6, r7}
 295              		.cfi_restore 7
 296              		.cfi_restore 6
 297              		.cfi_restore 5
 298              		.cfi_restore 4
ARM GAS  C:\Users\pajoh\AppData\Local\Temp\ccwnrqgo.s 			page 8


 299              		.cfi_def_cfa_offset 0
 300              	.LVL25:
 301 0048 7047     		bx	lr
 302              	.L22:
 303 004a 00BF     		.align	2
 304              	.L21:
 305 004c 1F85EB51 		.word	1374389535
 306              		.cfi_endproc
 307              	.LFE5:
 308              		.size	move_queue_add, .-move_queue_add
 309              		.section	.text.message_buff_execute,"ax",%progbits
 310              		.align	2
 311              		.global	message_buff_execute
 312              		.thumb
 313              		.thumb_func
 314              		.type	message_buff_execute, %function
 315              	message_buff_execute:
 316              	.LFB3:
  43:comms.c       ****     //execute oldest message received
 317              		.loc 1 43 0
 318              		.cfi_startproc
 319              		@ args = 0, pretend = 0, frame = 0
 320              		@ frame_needed = 0, uses_anonymous_args = 0
 321              	.LVL26:
 322 0000 F0B5     		push	{r4, r5, r6, r7, lr}
 323              		.cfi_def_cfa_offset 20
 324              		.cfi_offset 4, -20
 325              		.cfi_offset 5, -16
 326              		.cfi_offset 6, -12
 327              		.cfi_offset 7, -8
 328              		.cfi_offset 14, -4
 329 0002 83B0     		sub	sp, sp, #12
 330              		.cfi_def_cfa_offset 32
  49:comms.c       ****         //add message to move queue
 331              		.loc 1 49 0
 332 0004 B0F8D247 		ldrh	r4, [r0, #2002]
 333 0008 04EB8402 		add	r2, r4, r4, lsl #2
 334 000c 9300     		lsls	r3, r2, #2
 335 000e C25A     		ldrh	r2, [r0, r3]
 336 0010 45F25363 		movw	r3, #22099
 337 0014 9A42     		cmp	r2, r3
 338 0016 34D1     		bne	.L23
 339 0018 0546     		mov	r5, r0
  52:comms.c       ****         direction = msg_buff->msgs[msg_buff->tail].data[0];
 340              		.loc 1 52 0
 341 001a 4FEA840E 		lsl	lr, r4, #2
 342 001e 0EEB0403 		add	r3, lr, r4
 343 0022 9800     		lsls	r0, r3, #2
 344              	.LVL27:
 345 0024 2844     		add	r0, r0, r5
 346 0026 8178     		ldrb	r1, [r0, #2]	@ zero_extendqisi2
 347              	.LVL28:
  53:comms.c       ****         tuningWord =    (msg_buff->msgs[msg_buff->tail].data[1]<<16) + \
 348              		.loc 1 53 0
 349 0028 C278     		ldrb	r2, [r0, #3]	@ zero_extendqisi2
 350              	.LVL29:
  54:comms.c       ****                         (msg_buff->msgs[msg_buff->tail].data[2]<<8) + \
ARM GAS  C:\Users\pajoh\AppData\Local\Temp\ccwnrqgo.s 			page 9


 351              		.loc 1 54 0
 352 002a 0679     		ldrb	r6, [r0, #4]	@ zero_extendqisi2
  55:comms.c       ****                         msg_buff->msgs[msg_buff->tail].data[3];
 353              		.loc 1 55 0
 354 002c 4379     		ldrb	r3, [r0, #5]	@ zero_extendqisi2
 355 002e 1B02     		lsls	r3, r3, #8
  54:comms.c       ****                         (msg_buff->msgs[msg_buff->tail].data[2]<<8) + \
 356              		.loc 1 54 0
 357 0030 03EB0643 		add	r3, r3, r6, lsl #16
  56:comms.c       ****         duration =      (msg_buff->msgs[msg_buff->tail].data[4]<<24) + \
 358              		.loc 1 56 0
 359 0034 8779     		ldrb	r7, [r0, #6]	@ zero_extendqisi2
 360              	.LVL30:
  57:comms.c       ****                         (msg_buff->msgs[msg_buff->tail].data[5]<<16) + \
 361              		.loc 1 57 0
 362 0036 90F807C0 		ldrb	ip, [r0, #7]	@ zero_extendqisi2
  58:comms.c       ****                         (msg_buff->msgs[msg_buff->tail].data[6]<<8) + \
 363              		.loc 1 58 0
 364 003a 067A     		ldrb	r6, [r0, #8]	@ zero_extendqisi2
 365 003c 3604     		lsls	r6, r6, #16
  57:comms.c       ****                         (msg_buff->msgs[msg_buff->tail].data[5]<<16) + \
 366              		.loc 1 57 0
 367 003e 06EB0C66 		add	r6, r6, ip, lsl #24
  59:comms.c       ****                         msg_buff->msgs[msg_buff->tail].data[7];
 368              		.loc 1 59 0
 369 0042 407A     		ldrb	r0, [r0, #9]	@ zero_extendqisi2
  58:comms.c       ****                         (msg_buff->msgs[msg_buff->tail].data[6]<<8) + \
 370              		.loc 1 58 0
 371 0044 06EB0020 		add	r0, r6, r0, lsl #8
  60:comms.c       ****         move_queue_add(&move_queue,joint,direction,tuningWord,duration);
 372              		.loc 1 60 0
 373 0048 7444     		add	r4, r4, lr
 374 004a A600     		lsls	r6, r4, #2
 375 004c 2E44     		add	r6, r6, r5
 376 004e B47A     		ldrb	r4, [r6, #10]	@ zero_extendqisi2
  59:comms.c       ****                         msg_buff->msgs[msg_buff->tail].data[7];
 377              		.loc 1 59 0
 378 0050 2044     		add	r0, r0, r4
 379              	.LVL31:
  61:comms.c       ****         msg_buff->tail = (msg_buff->tail + 1) % MSG_BUFF_SIZE;
 380              		.loc 1 61 0
 381 0052 0090     		str	r0, [sp]
 382 0054 3B44     		add	r3, r3, r7
 383              	.LVL32:
 384 0056 0C48     		ldr	r0, .L26
 385              	.LVL33:
 386 0058 FFF7FEFF 		bl	move_queue_add
 387              	.LVL34:
  62:comms.c       ****         msg_buff->size -= 1;
 388              		.loc 1 62 0
 389 005c B5F8D227 		ldrh	r2, [r5, #2002]
 390 0060 0132     		adds	r2, r2, #1
 391 0062 0A4B     		ldr	r3, .L26+4
 392 0064 83FB0231 		smull	r3, r1, r3, r2
 393 0068 D317     		asrs	r3, r2, #31
 394 006a C3EB6113 		rsb	r3, r3, r1, asr #5
 395 006e 6421     		movs	r1, #100
ARM GAS  C:\Users\pajoh\AppData\Local\Temp\ccwnrqgo.s 			page 10


 396 0070 01FB1323 		mls	r3, r1, r3, r2
 397 0074 A5F8D237 		strh	r3, [r5, #2002]	@ movhi
  63:comms.c       ****     }
 398              		.loc 1 63 0
 399 0078 B5F8D437 		ldrh	r3, [r5, #2004]
 400 007c 013B     		subs	r3, r3, #1
 401 007e A5F8D437 		strh	r3, [r5, #2004]	@ movhi
 402              	.LVL35:
 403              	.L23:
  65:comms.c       **** 
 404              		.loc 1 65 0
 405 0082 03B0     		add	sp, sp, #12
 406              		.cfi_def_cfa_offset 20
 407              		@ sp needed
 408 0084 F0BD     		pop	{r4, r5, r6, r7, pc}
 409              	.L27:
 410 0086 00BF     		.align	2
 411              	.L26:
 412 0088 00000000 		.word	move_queue
 413 008c 1F85EB51 		.word	1374389535
 414              		.cfi_endproc
 415              	.LFE3:
 416              		.size	message_buff_execute, .-message_buff_execute
 417              		.section	.text.move_queue_get,"ax",%progbits
 418              		.align	2
 419              		.global	move_queue_get
 420              		.thumb
 421              		.thumb_func
 422              		.type	move_queue_get, %function
 423              	move_queue_get:
 424              	.LFB6:
  94:comms.c       **** Move * move_queue_get(Move_Queue * move_queue){
 425              		.loc 1 94 0
 426              		.cfi_startproc
 427              		@ args = 0, pretend = 0, frame = 0
 428              		@ frame_needed = 0, uses_anonymous_args = 0
 429              		@ link register save eliminated.
 430              	.LVL36:
  95:comms.c       ****     //gives pointer to oldest move, increments tail index
  96:comms.c       ****     Move * move;
  97:comms.c       ****     if(move_queue->size > 0){
 431              		.loc 1 97 0
 432 0000 B0F8B434 		ldrh	r3, [r0, #1204]
 433 0004 B3B1     		cbz	r3, .L30
  94:comms.c       **** Move * move_queue_get(Move_Queue * move_queue){
 434              		.loc 1 94 0
 435 0006 10B4     		push	{r4}
 436              		.cfi_def_cfa_offset 4
 437              		.cfi_offset 4, -4
  98:comms.c       ****         move_queue->size -= 1;
 438              		.loc 1 98 0
 439 0008 013B     		subs	r3, r3, #1
 440 000a A0F8B434 		strh	r3, [r0, #1204]	@ movhi
  99:comms.c       ****         move = &move_queue->moves[move_queue->tail];
 441              		.loc 1 99 0
 442 000e B0F8B234 		ldrh	r3, [r0, #1202]
 443 0012 03EB4302 		add	r2, r3, r3, lsl #1
ARM GAS  C:\Users\pajoh\AppData\Local\Temp\ccwnrqgo.s 			page 11


 444 0016 9100     		lsls	r1, r2, #2
 445              	.LVL37:
 100:comms.c       ****         move_queue->tail = (move_queue->tail + 1) % MOVE_QUEUE_SIZE;
 446              		.loc 1 100 0
 447 0018 0133     		adds	r3, r3, #1
 448 001a 084A     		ldr	r2, .L33
 449 001c 82FB0324 		smull	r2, r4, r2, r3
 450 0020 DA17     		asrs	r2, r3, #31
 451 0022 C2EB6412 		rsb	r2, r2, r4, asr #5
 452 0026 6424     		movs	r4, #100
 453 0028 04FB1232 		mls	r2, r4, r2, r3
 454 002c A0F8B224 		strh	r2, [r0, #1202]	@ movhi
 101:comms.c       ****     }
 102:comms.c       ****     else{
 103:comms.c       ****         //move queue empty
 104:comms.c       ****         return 0;
 105:comms.c       ****     }
 106:comms.c       ****     return move;
 455              		.loc 1 106 0
 456 0030 0844     		add	r0, r0, r1
 457              	.LVL38:
 458 0032 01E0     		b	.L29
 459              	.LVL39:
 460              	.L30:
 461              		.cfi_def_cfa_offset 0
 462              		.cfi_restore 4
 104:comms.c       ****     }
 463              		.loc 1 104 0
 464 0034 0020     		movs	r0, #0
 465              	.LVL40:
 466 0036 7047     		bx	lr
 467              	.LVL41:
 468              	.L29:
 469              		.cfi_def_cfa_offset 4
 470              		.cfi_offset 4, -4
 107:comms.c       **** }
 471              		.loc 1 107 0
 472 0038 10BC     		pop	{r4}
 473              		.cfi_restore 4
 474              		.cfi_def_cfa_offset 0
 475 003a 7047     		bx	lr
 476              	.L34:
 477              		.align	2
 478              	.L33:
 479 003c 1F85EB51 		.word	1374389535
 480              		.cfi_endproc
 481              	.LFE6:
 482              		.size	move_queue_get, .-move_queue_get
 483              		.text
 484              	.Letext0:
 485              		.file 2 "Generated_Source\\PSoC5/cytypes.h"
 486              		.file 3 "comms.h"