ARM GAS  C:\Users\pajoh\AppData\Local\Temp\ccrbg1dh.s 			page 1


   1              		.syntax unified
   2              		.cpu cortex-m3
   3              		.fpu softvfp
   4              		.eabi_attribute 20, 1
   5              		.eabi_attribute 21, 1
   6              		.eabi_attribute 23, 3
   7              		.eabi_attribute 24, 1
   8              		.eabi_attribute 25, 1
   9              		.eabi_attribute 26, 1
  10              		.eabi_attribute 30, 1
  11              		.eabi_attribute 34, 1
  12              		.eabi_attribute 18, 4
  13              		.thumb
  14              		.syntax unified
  15              		.file	"joints.c"
  16              		.text
  17              	.Ltext0:
  18              		.cfi_sections	.debug_frame
  19              		.section	.text.joint_init,"ax",%progbits
  20              		.align	2
  21              		.global	joint_init
  22              		.thumb
  23              		.thumb_func
  24              		.type	joint_init, %function
  25              	joint_init:
  26              	.LFB1:
  27              		.file 1 "joints.c"
   1:joints.c      **** /* ========================================
   2:joints.c      ****  *
   3:joints.c      ****  * Copyright YOUR COMPANY, THE YEAR
   4:joints.c      ****  * All Rights Reserved
   5:joints.c      ****  * UNPUBLISHED, LICENSED SOFTWARE.
   6:joints.c      ****  *
   7:joints.c      ****  * CONFIDENTIAL AND PROPRIETARY INFORMATION
   8:joints.c      ****  * WHICH IS THE PROPERTY OF your company.
   9:joints.c      ****  *
  10:joints.c      ****  * ========================================
  11:joints.c      **** */
  12:joints.c      **** 
  13:joints.c      **** #include "joints.h"
  14:joints.c      **** 
  15:joints.c      **** volatile int32 J1_home = J1_HOME;
  16:joints.c      **** 
  17:joints.c      **** void joint_init(Joint volatile * joints){
  28              		.loc 1 17 0
  29              		.cfi_startproc
  30              		@ args = 0, pretend = 0, frame = 0
  31              		@ frame_needed = 0, uses_anonymous_args = 0
  32              	.LVL0:
  33 0000 10B5     		push	{r4, lr}
  34              		.cfi_def_cfa_offset 8
  35              		.cfi_offset 4, -8
  36              		.cfi_offset 14, -4
  37 0002 0446     		mov	r4, r0
  38              	.LVL1:
  18:joints.c      ****     //set joints values to 0 initially
  19:joints.c      ****     int i;
ARM GAS  C:\Users\pajoh\AppData\Local\Temp\ccrbg1dh.s 			page 2


  20:joints.c      ****     for(i = 0; i < NUM_JOINTS; i++){
  39              		.loc 1 20 0
  40 0004 0021     		movs	r1, #0
  41 0006 0AE0     		b	.L2
  42              	.LVL2:
  43              	.L3:
  21:joints.c      ****         joints[i].dir = 0;
  44              		.loc 1 21 0 discriminator 3
  45 0008 4801     		lsls	r0, r1, #5
  46 000a 2218     		adds	r2, r4, r0
  47 000c 0023     		movs	r3, #0
  48 000e 5371     		strb	r3, [r2, #5]
  22:joints.c      ****         joints[i].duration = 0;
  49              		.loc 1 22 0 discriminator 3
  50 0010 D360     		str	r3, [r2, #12]
  23:joints.c      ****         joints[i].limit = 0;
  51              		.loc 1 23 0 discriminator 3
  52 0012 1374     		strb	r3, [r2, #16]
  24:joints.c      ****         joints[i].pos = 0;
  53              		.loc 1 24 0 discriminator 3
  54 0014 9360     		str	r3, [r2, #8]
  25:joints.c      ****         joints[i].step = 0;
  55              		.loc 1 25 0 discriminator 3
  56 0016 1371     		strb	r3, [r2, #4]
  26:joints.c      ****         joints[i].tuningWord = 0;
  57              		.loc 1 26 0 discriminator 3
  58 0018 2350     		str	r3, [r4, r0]
  27:joints.c      ****         joints[i].homed = 0;
  59              		.loc 1 27 0 discriminator 3
  60 001a 1377     		strb	r3, [r2, #28]
  20:joints.c      ****         joints[i].dir = 0;
  61              		.loc 1 20 0 discriminator 3
  62 001c 0131     		adds	r1, r1, #1
  63              	.LVL3:
  64              	.L2:
  20:joints.c      ****         joints[i].dir = 0;
  65              		.loc 1 20 0 is_stmt 0 discriminator 1
  66 001e 0229     		cmp	r1, #2
  67 0020 F2DD     		ble	.L3
  28:joints.c      ****     }
  29:joints.c      ****     //initialize angle and angleOld.
  30:joints.c      ****     joints[1].angle = send_cmd(SPI_ANGLE|SPI_CMD_READ,0) & 0x3FFF;
  68              		.loc 1 30 0 is_stmt 1
  69 0022 0021     		movs	r1, #0
  70              	.LVL4:
  71 0024 47F6FF70 		movw	r0, #32767
  72 0028 FFF7FEFF 		bl	send_cmd
  73              	.LVL5:
  74 002c C0F30D00 		ubfx	r0, r0, #0, #14
  75 0030 2087     		strh	r0, [r4, #56]	@ movhi
  31:joints.c      ****     joints[2].angle = send_cmd(SPI_ANGLE|SPI_CMD_READ,1) & 0x3FFF;
  76              		.loc 1 31 0
  77 0032 0121     		movs	r1, #1
  78 0034 47F6FF70 		movw	r0, #32767
  79 0038 FFF7FEFF 		bl	send_cmd
  80              	.LVL6:
  81 003c C0F30D00 		ubfx	r0, r0, #0, #14
ARM GAS  C:\Users\pajoh\AppData\Local\Temp\ccrbg1dh.s 			page 3


  82 0040 A4F85800 		strh	r0, [r4, #88]	@ movhi
  32:joints.c      ****     joints[1].angleOld = joints[1].angle;
  83              		.loc 1 32 0
  84 0044 238F     		ldrh	r3, [r4, #56]
  85 0046 6387     		strh	r3, [r4, #58]	@ movhi
  33:joints.c      ****     joints[2].angleOld = joints[2].angle;
  86              		.loc 1 33 0
  87 0048 B4F85830 		ldrh	r3, [r4, #88]
  88 004c A4F85A30 		strh	r3, [r4, #90]	@ movhi
  89 0050 10BD     		pop	{r4, pc}
  90              		.cfi_endproc
  91              	.LFE1:
  92              		.size	joint_init, .-joint_init
  93 0052 00BF     		.section	.text.set_velocity,"ax",%progbits
  94              		.align	2
  95              		.global	set_velocity
  96              		.thumb
  97              		.thumb_func
  98              		.type	set_velocity, %function
  99              	set_velocity:
 100              	.LFB3:
  34:joints.c      **** }
  35:joints.c      **** void joint_home(Joint volatile * joints, char joint){
  36:joints.c      ****     //different for joint 1 vs joints 2/3
  37:joints.c      ****     if(joint == 1){
  38:joints.c      ****         J1_EN_Write(0);
  39:joints.c      ****         if(joints[0].pos - J1_home > 0){
  40:joints.c      ****             move_queue_add(&move_queue, 1, J1_REV, vel_to_tuningWord(1000), 200000);
  41:joints.c      ****         }
  42:joints.c      ****         else if(joints[0].pos - J1_home < 0){
  43:joints.c      ****             move_queue_add(&move_queue, 1, J1_FWD, vel_to_tuningWord(1000), 200000);
  44:joints.c      ****         }
  45:joints.c      ****         //home joint 1 - no limit switch, just compare position with required value   
  46:joints.c      ****         while(joints[0].pos > J1_home + 100 || joints[0].pos < J1_home - 100){
  47:joints.c      ****             ;//wait
  48:joints.c      ****         }
  49:joints.c      ****         //joint homed
  50:joints.c      ****         joints[0].duration = 0; //kill current motion sequence
  51:joints.c      ****         J1_EN_Write(1);
  52:joints.c      ****     }
  53:joints.c      ****     else if(joint == 2){
  54:joints.c      ****         J2_EN_Write(0);
  55:joints.c      ****         J3_EN_Write(0);
  56:joints.c      ****         move_queue_add(&move_queue, 2, J2_FWD, vel_to_tuningWord(1000), 200000);
  57:joints.c      ****         move_queue_add(&move_queue, 3, J3_FWD, vel_to_tuningWord(1000), 200000);
  58:joints.c      ****         while(joints[1].limit != 1){
  59:joints.c      ****             ;//wait
  60:joints.c      ****         }
  61:joints.c      ****         joints[1].duration = 0;
  62:joints.c      ****         joints[2].duration = 0;
  63:joints.c      ****         J2_EN_Write(1);
  64:joints.c      ****         J3_EN_Write(1);
  65:joints.c      ****     }
  66:joints.c      ****     else if(joint == 3){
  67:joints.c      ****         J2_EN_Write(0);
  68:joints.c      ****         J3_EN_Write(0);
  69:joints.c      ****         move_queue_add(&move_queue, 3, J3_REV, vel_to_tuningWord(1000), 200000);
ARM GAS  C:\Users\pajoh\AppData\Local\Temp\ccrbg1dh.s 			page 4


  70:joints.c      ****         while(joints[2].limit != 1){
  71:joints.c      ****             ;//wait
  72:joints.c      ****         }
  73:joints.c      ****         joints[2].duration = 0;
  74:joints.c      ****         J2_EN_Write(1);
  75:joints.c      ****         J3_EN_Write(1);
  76:joints.c      ****     }
  77:joints.c      ****     else{
  78:joints.c      ****         //do nothing   
  79:joints.c      ****     }
  80:joints.c      **** }
  81:joints.c      **** 
  82:joints.c      **** void set_velocity(int joint, int32 tuningWord, char direction){
 101              		.loc 1 82 0
 102              		.cfi_startproc
 103              		@ args = 0, pretend = 0, frame = 0
 104              		@ frame_needed = 0, uses_anonymous_args = 0
 105              		@ link register save eliminated.
 106              	.LVL7:
 107 0000 10B4     		push	{r4}
 108              		.cfi_def_cfa_offset 4
 109              		.cfi_offset 4, -4
  83:joints.c      ****     //set tuning word for each joint
  84:joints.c      ****     joints[joint-1].tuningWord = tuningWord;
 110              		.loc 1 84 0
 111 0002 0138     		subs	r0, r0, #1
 112              	.LVL8:
 113 0004 034B     		ldr	r3, .L7
 114 0006 4001     		lsls	r0, r0, #5
 115              	.LVL9:
 116 0008 1C18     		adds	r4, r3, r0
 117 000a 1950     		str	r1, [r3, r0]
  85:joints.c      ****     joints[joint-1].dir = direction;
 118              		.loc 1 85 0
 119 000c 6271     		strb	r2, [r4, #5]
  86:joints.c      **** }
 120              		.loc 1 86 0
 121 000e 10BC     		pop	{r4}
 122              		.cfi_restore 4
 123              		.cfi_def_cfa_offset 0
 124 0010 7047     		bx	lr
 125              	.L8:
 126 0012 00BF     		.align	2
 127              	.L7:
 128 0014 00000000 		.word	joints
 129              		.cfi_endproc
 130              	.LFE3:
 131              		.size	set_velocity, .-set_velocity
 132              		.global	__aeabi_uldivmod
 133              		.section	.text.vel_to_tuningWord,"ax",%progbits
 134              		.align	2
 135              		.global	vel_to_tuningWord
 136              		.thumb
 137              		.thumb_func
 138              		.type	vel_to_tuningWord, %function
 139              	vel_to_tuningWord:
 140              	.LFB4:
ARM GAS  C:\Users\pajoh\AppData\Local\Temp\ccrbg1dh.s 			page 5


  87:joints.c      **** 
  88:joints.c      **** uint32 vel_to_tuningWord(uint32 velocity){
 141              		.loc 1 88 0
 142              		.cfi_startproc
 143              		@ args = 0, pretend = 0, frame = 0
 144              		@ frame_needed = 0, uses_anonymous_args = 0
 145              	.LVL10:
 146 0000 08B5     		push	{r3, lr}
 147              		.cfi_def_cfa_offset 8
 148              		.cfi_offset 3, -8
 149              		.cfi_offset 14, -4
 150 0002 0146     		mov	r1, r0
  89:joints.c      ****     uint64 tw = ((uint64)velocity * 16777216) / 10000;
 151              		.loc 1 89 0
 152 0004 42F21072 		movw	r2, #10000
 153 0008 0023     		movs	r3, #0
 154 000a 0006     		lsls	r0, r0, #24
 155              	.LVL11:
 156 000c 090A     		lsrs	r1, r1, #8
 157              	.LVL12:
 158 000e FFF7FEFF 		bl	__aeabi_uldivmod
 159              	.LVL13:
  90:joints.c      ****     return (uint32)tw;
  91:joints.c      **** }
 160              		.loc 1 91 0
 161 0012 08BD     		pop	{r3, pc}
 162              		.cfi_endproc
 163              	.LFE4:
 164              		.size	vel_to_tuningWord, .-vel_to_tuningWord
 165              		.section	.text.joint_home,"ax",%progbits
 166              		.align	2
 167              		.global	joint_home
 168              		.thumb
 169              		.thumb_func
 170              		.type	joint_home, %function
 171              	joint_home:
 172              	.LFB2:
  35:joints.c      ****     //different for joint 1 vs joints 2/3
 173              		.loc 1 35 0
 174              		.cfi_startproc
 175              		@ args = 0, pretend = 0, frame = 0
 176              		@ frame_needed = 0, uses_anonymous_args = 0
 177              	.LVL14:
 178 0000 F0B5     		push	{r4, r5, r6, r7, lr}
 179              		.cfi_def_cfa_offset 20
 180              		.cfi_offset 4, -20
 181              		.cfi_offset 5, -16
 182              		.cfi_offset 6, -12
 183              		.cfi_offset 7, -8
 184              		.cfi_offset 14, -4
 185 0002 83B0     		sub	sp, sp, #12
 186              		.cfi_def_cfa_offset 32
 187 0004 0446     		mov	r4, r0
  37:joints.c      ****         J1_EN_Write(0);
 188              		.loc 1 37 0
 189 0006 0129     		cmp	r1, #1
 190 0008 39D1     		bne	.L12
ARM GAS  C:\Users\pajoh\AppData\Local\Temp\ccrbg1dh.s 			page 6


  38:joints.c      ****         if(joints[0].pos - J1_home > 0){
 191              		.loc 1 38 0
 192 000a 0020     		movs	r0, #0
 193              	.LVL15:
 194 000c FFF7FEFF 		bl	J1_EN_Write
 195              	.LVL16:
  39:joints.c      ****             move_queue_add(&move_queue, 1, J1_REV, vel_to_tuningWord(1000), 200000);
 196              		.loc 1 39 0
 197 0010 A368     		ldr	r3, [r4, #8]
 198 0012 424A     		ldr	r2, .L22
 199 0014 1268     		ldr	r2, [r2]
 200 0016 9B1A     		subs	r3, r3, r2
 201 0018 002B     		cmp	r3, #0
 202 001a 0CDD     		ble	.L13
  40:joints.c      ****         }
 203              		.loc 1 40 0
 204 001c 4FF47A70 		mov	r0, #1000
 205 0020 FFF7FEFF 		bl	vel_to_tuningWord
 206              	.LVL17:
 207 0024 3E4B     		ldr	r3, .L22+4
 208 0026 0093     		str	r3, [sp]
 209 0028 0346     		mov	r3, r0
 210 002a 0122     		movs	r2, #1
 211 002c 1146     		mov	r1, r2
 212 002e 3D48     		ldr	r0, .L22+8
 213 0030 FFF7FEFF 		bl	move_queue_add
 214              	.LVL18:
 215 0034 11E0     		b	.L15
 216              	.L13:
  42:joints.c      ****             move_queue_add(&move_queue, 1, J1_FWD, vel_to_tuningWord(1000), 200000);
 217              		.loc 1 42 0
 218 0036 A368     		ldr	r3, [r4, #8]
 219 0038 384A     		ldr	r2, .L22
 220 003a 1268     		ldr	r2, [r2]
 221 003c 9B1A     		subs	r3, r3, r2
 222 003e 002B     		cmp	r3, #0
 223 0040 0BDA     		bge	.L15
  43:joints.c      ****         }
 224              		.loc 1 43 0
 225 0042 4FF47A70 		mov	r0, #1000
 226 0046 FFF7FEFF 		bl	vel_to_tuningWord
 227              	.LVL19:
 228 004a 354B     		ldr	r3, .L22+4
 229 004c 0093     		str	r3, [sp]
 230 004e 0346     		mov	r3, r0
 231 0050 0022     		movs	r2, #0
 232 0052 0121     		movs	r1, #1
 233 0054 3348     		ldr	r0, .L22+8
 234 0056 FFF7FEFF 		bl	move_queue_add
 235              	.LVL20:
 236              	.L15:
  46:joints.c      ****             ;//wait
 237              		.loc 1 46 0 discriminator 3
 238 005a A268     		ldr	r2, [r4, #8]
 239 005c 2F4B     		ldr	r3, .L22
 240 005e 1B68     		ldr	r3, [r3]
 241 0060 6433     		adds	r3, r3, #100
ARM GAS  C:\Users\pajoh\AppData\Local\Temp\ccrbg1dh.s 			page 7


 242 0062 9A42     		cmp	r2, r3
 243 0064 F9DC     		bgt	.L15
  46:joints.c      ****             ;//wait
 244              		.loc 1 46 0 is_stmt 0 discriminator 2
 245 0066 A268     		ldr	r2, [r4, #8]
 246 0068 2C4B     		ldr	r3, .L22
 247 006a 1B68     		ldr	r3, [r3]
 248 006c 643B     		subs	r3, r3, #100
 249 006e 9A42     		cmp	r2, r3
 250 0070 F3DB     		blt	.L15
  50:joints.c      ****         J1_EN_Write(1);
 251              		.loc 1 50 0 is_stmt 1
 252 0072 0023     		movs	r3, #0
 253 0074 E360     		str	r3, [r4, #12]
  51:joints.c      ****     }
 254              		.loc 1 51 0
 255 0076 0120     		movs	r0, #1
 256 0078 FFF7FEFF 		bl	J1_EN_Write
 257              	.LVL21:
 258 007c 4CE0     		b	.L11
 259              	.LVL22:
 260              	.L12:
  53:joints.c      ****         J2_EN_Write(0);
 261              		.loc 1 53 0
 262 007e 0229     		cmp	r1, #2
 263 0080 29D1     		bne	.L18
  54:joints.c      ****         J3_EN_Write(0);
 264              		.loc 1 54 0
 265 0082 0020     		movs	r0, #0
 266              	.LVL23:
 267 0084 FFF7FEFF 		bl	J2_EN_Write
 268              	.LVL24:
  55:joints.c      ****         move_queue_add(&move_queue, 2, J2_FWD, vel_to_tuningWord(1000), 200000);
 269              		.loc 1 55 0
 270 0088 0020     		movs	r0, #0
 271 008a FFF7FEFF 		bl	J3_EN_Write
 272              	.LVL25:
  56:joints.c      ****         move_queue_add(&move_queue, 3, J3_FWD, vel_to_tuningWord(1000), 200000);
 273              		.loc 1 56 0
 274 008e 4FF47A70 		mov	r0, #1000
 275 0092 FFF7FEFF 		bl	vel_to_tuningWord
 276              	.LVL26:
 277 0096 0646     		mov	r6, r0
 278 0098 224D     		ldr	r5, .L22+8
 279 009a 214F     		ldr	r7, .L22+4
 280 009c 0097     		str	r7, [sp]
 281 009e 0346     		mov	r3, r0
 282 00a0 0022     		movs	r2, #0
 283 00a2 0221     		movs	r1, #2
 284 00a4 2846     		mov	r0, r5
 285 00a6 FFF7FEFF 		bl	move_queue_add
 286              	.LVL27:
  57:joints.c      ****         while(joints[1].limit != 1){
 287              		.loc 1 57 0
 288 00aa 0097     		str	r7, [sp]
 289 00ac 3346     		mov	r3, r6
 290 00ae 0022     		movs	r2, #0
ARM GAS  C:\Users\pajoh\AppData\Local\Temp\ccrbg1dh.s 			page 8


 291 00b0 0321     		movs	r1, #3
 292 00b2 2846     		mov	r0, r5
 293 00b4 FFF7FEFF 		bl	move_queue_add
 294              	.LVL28:
 295              	.L19:
  58:joints.c      ****             ;//wait
 296              		.loc 1 58 0 discriminator 1
 297 00b8 94F83030 		ldrb	r3, [r4, #48]	@ zero_extendqisi2
 298 00bc DBB2     		uxtb	r3, r3
 299 00be 012B     		cmp	r3, #1
 300 00c0 FAD1     		bne	.L19
  61:joints.c      ****         joints[2].duration = 0;
 301              		.loc 1 61 0
 302 00c2 0023     		movs	r3, #0
 303 00c4 E362     		str	r3, [r4, #44]
  62:joints.c      ****         J2_EN_Write(1);
 304              		.loc 1 62 0
 305 00c6 E364     		str	r3, [r4, #76]
  63:joints.c      ****         J3_EN_Write(1);
 306              		.loc 1 63 0
 307 00c8 0120     		movs	r0, #1
 308 00ca FFF7FEFF 		bl	J2_EN_Write
 309              	.LVL29:
  64:joints.c      ****     }
 310              		.loc 1 64 0
 311 00ce 0120     		movs	r0, #1
 312 00d0 FFF7FEFF 		bl	J3_EN_Write
 313              	.LVL30:
 314 00d4 20E0     		b	.L11
 315              	.LVL31:
 316              	.L18:
  66:joints.c      ****         J2_EN_Write(0);
 317              		.loc 1 66 0
 318 00d6 0329     		cmp	r1, #3
 319 00d8 1ED1     		bne	.L11
  67:joints.c      ****         J3_EN_Write(0);
 320              		.loc 1 67 0
 321 00da 0020     		movs	r0, #0
 322              	.LVL32:
 323 00dc FFF7FEFF 		bl	J2_EN_Write
 324              	.LVL33:
  68:joints.c      ****         move_queue_add(&move_queue, 3, J3_REV, vel_to_tuningWord(1000), 200000);
 325              		.loc 1 68 0
 326 00e0 0020     		movs	r0, #0
 327 00e2 FFF7FEFF 		bl	J3_EN_Write
 328              	.LVL34:
  69:joints.c      ****         while(joints[2].limit != 1){
 329              		.loc 1 69 0
 330 00e6 4FF47A70 		mov	r0, #1000
 331 00ea FFF7FEFF 		bl	vel_to_tuningWord
 332              	.LVL35:
 333 00ee 0C4B     		ldr	r3, .L22+4
 334 00f0 0093     		str	r3, [sp]
 335 00f2 0346     		mov	r3, r0
 336 00f4 0122     		movs	r2, #1
 337 00f6 0321     		movs	r1, #3
 338 00f8 0A48     		ldr	r0, .L22+8
ARM GAS  C:\Users\pajoh\AppData\Local\Temp\ccrbg1dh.s 			page 9


 339 00fa FFF7FEFF 		bl	move_queue_add
 340              	.LVL36:
 341              	.L20:
  70:joints.c      ****             ;//wait
 342              		.loc 1 70 0 discriminator 1
 343 00fe 94F85030 		ldrb	r3, [r4, #80]	@ zero_extendqisi2
 344 0102 DBB2     		uxtb	r3, r3
 345 0104 012B     		cmp	r3, #1
 346 0106 FAD1     		bne	.L20
  73:joints.c      ****         J2_EN_Write(1);
 347              		.loc 1 73 0
 348 0108 0023     		movs	r3, #0
 349 010a E364     		str	r3, [r4, #76]
  74:joints.c      ****         J3_EN_Write(1);
 350              		.loc 1 74 0
 351 010c 0120     		movs	r0, #1
 352 010e FFF7FEFF 		bl	J2_EN_Write
 353              	.LVL37:
  75:joints.c      ****     }
 354              		.loc 1 75 0
 355 0112 0120     		movs	r0, #1
 356 0114 FFF7FEFF 		bl	J3_EN_Write
 357              	.LVL38:
 358              	.L11:
  80:joints.c      **** 
 359              		.loc 1 80 0
 360 0118 03B0     		add	sp, sp, #12
 361              		.cfi_def_cfa_offset 20
 362              		@ sp needed
 363 011a F0BD     		pop	{r4, r5, r6, r7, pc}
 364              	.LVL39:
 365              	.L23:
 366              		.align	2
 367              	.L22:
 368 011c 00000000 		.word	.LANCHOR0
 369 0120 400D0300 		.word	200000
 370 0124 00000000 		.word	move_queue
 371              		.cfi_endproc
 372              	.LFE2:
 373              		.size	joint_home, .-joint_home
 374              		.comm	joints,96,4
 375              		.global	J1_home
 376              		.comm	rx_index,4,4
 377              		.comm	rx_buffer,80,4
 378              		.comm	move_queue,1208,4
 379              		.comm	msg_buff,2006,4
 380              		.comm	read_angle_command,2,2
 381              		.data
 382              		.align	2
 383              		.set	.LANCHOR0,. + 0
 384              		.type	J1_home, %object
 385              		.size	J1_home, 4
 386              	J1_home:
 387 0000 C0E42800 		.word	2680000
 388              		.text
 389              	.Letext0:
 390              		.file 2 "Generated_Source\\PSoC5/cytypes.h"
ARM GAS  C:\Users\pajoh\AppData\Local\Temp\ccrbg1dh.s 			page 10


 391              		.file 3 "comms.h"
 392              		.file 4 "joints.h"
 393              		.file 5 "as5048.h"
 394              		.file 6 "Generated_Source\\PSoC5/J1_EN.h"
 395              		.file 7 "Generated_Source\\PSoC5/J2_EN.h"
 396              		.file 8 "Generated_Source\\PSoC5/J3_EN.h"