ARM GAS  C:\Users\pajoh\AppData\Local\Temp\ccmnmQso.s 			page 1


   1              		.syntax unified
   2              		.cpu cortex-m3
   3              		.fpu softvfp
   4              		.eabi_attribute 20, 1
   5              		.eabi_attribute 21, 1
   6              		.eabi_attribute 23, 3
   7              		.eabi_attribute 24, 1
   8              		.eabi_attribute 25, 1
   9              		.eabi_attribute 26, 1
  10              		.eabi_attribute 30, 1
  11              		.eabi_attribute 34, 1
  12              		.eabi_attribute 18, 4
  13              		.thumb
  14              		.syntax unified
  15              		.file	"main.c"
  16              		.text
  17              	.Ltext0:
  18              		.cfi_sections	.debug_frame
  19              		.section	.text.main,"ax",%progbits
  20              		.align	2
  21              		.global	main
  22              		.thumb
  23              		.thumb_func
  24              		.type	main, %function
  25              	main:
  26              	.LFB64:
  27              		.file 1 "main.c"
   1:main.c        **** /* ========================================
   2:main.c        ****  *
   3:main.c        ****  * Copyright YOUR COMPANY, THE YEAR
   4:main.c        ****  * All Rights Reserved
   5:main.c        ****  * UNPUBLISHED, LICENSED SOFTWARE.
   6:main.c        ****  *
   7:main.c        ****  * CONFIDENTIAL AND PROPRIETARY INFORMATION
   8:main.c        ****  * WHICH IS THE PROPERTY OF your company.
   9:main.c        ****  *
  10:main.c        ****  * ========================================
  11:main.c        **** */
  12:main.c        **** #include "project.h"
  13:main.c        **** #include "stdio.h"
  14:main.c        **** #include "comms.h"
  15:main.c        **** #include "joints.h"
  16:main.c        **** #include "as5048.h"
  17:main.c        **** 
  18:main.c        **** #define BUFF_SIZE 80
  19:main.c        **** #define TRUE 1
  20:main.c        **** #define FALSE 0
  21:main.c        **** 
  22:main.c        **** //serial communication brainstorming
  23:main.c        **** //messages defined as <command><joint><data><delimiter>
  24:main.c        **** 
  25:main.c        **** 
  26:main.c        **** 
  27:main.c        **** char moveJ1 = FALSE;
  28:main.c        **** char moveJ2 = FALSE;
  29:main.c        **** char moveJ3 = FALSE;
  30:main.c        **** 
ARM GAS  C:\Users\pajoh\AppData\Local\Temp\ccmnmQso.s 			page 2


  31:main.c        **** char home = FALSE;
  32:main.c        **** 
  33:main.c        **** char J1_ctrl_val = 0;
  34:main.c        **** char J2_ctrl_val = 0;
  35:main.c        **** char J3_ctrl_val = 0;
  36:main.c        **** 
  37:main.c        **** //UART stuff
  38:main.c        **** uint8 Ch;
  39:main.c        **** char TransmitBuffer[BUFF_SIZE];
  40:main.c        **** 
  41:main.c        **** 
  42:main.c        **** extern volatile Message_Buff msg_buff;
  43:main.c        **** extern volatile Move_Queue move_queue;
  44:main.c        **** extern volatile char rx_buffer[RX_SIZE];
  45:main.c        **** extern volatile int rx_index;
  46:main.c        **** volatile char tick;
  47:main.c        **** 
  48:main.c        **** void home_joints(void);
  49:main.c        **** void update_positions(void);
  50:main.c        **** void set_velocity(int joint, int32 tuningWord, char direction);
  51:main.c        **** uint32 vel_to_tuningWord(uint32 velocity);
  52:main.c        **** 
  53:main.c        **** int main(void)
  54:main.c        **** {
  28              		.loc 1 54 0
  29              		.cfi_startproc
  30              		@ Volatile: function does not return.
  31              		@ args = 0, pretend = 0, frame = 0
  32              		@ frame_needed = 0, uses_anonymous_args = 0
  33 0000 00B5     		push	{lr}
  34              		.cfi_def_cfa_offset 4
  35              		.cfi_offset 14, -4
  36 0002 83B0     		sub	sp, sp, #12
  37              		.cfi_def_cfa_offset 16
  55:main.c        ****     CyGlobalIntEnable; /* Enable global interrupts. */
  38              		.loc 1 55 0
  39              		.syntax unified
  40              	@ 55 "main.c" 1
  41 0004 62B6     		CPSIE   i
  42              	@ 0 "" 2
  56:main.c        ****     read_angle_command = SPI_CMD_READ | SPI_ANGLE;
  43              		.loc 1 56 0
  44              		.thumb
  45              		.syntax unified
  46 0006 264C     		ldr	r4, .L5
  47 0008 47F6FF70 		movw	r0, #32767
  48 000c 2080     		strh	r0, [r4]	@ movhi
  57:main.c        ****     read_angle_command |= spiCalcEvenParity(read_angle_command)<<15;
  49              		.loc 1 57 0
  50 000e FFF7FEFF 		bl	spiCalcEvenParity
  51              	.LVL0:
  52 0012 2388     		ldrh	r3, [r4]
  53 0014 43EAC030 		orr	r0, r3, r0, lsl #15
  54 0018 2080     		strh	r0, [r4]	@ movhi
  58:main.c        ****     
  59:main.c        ****     CS_J2_Write(1);
  55              		.loc 1 59 0
ARM GAS  C:\Users\pajoh\AppData\Local\Temp\ccmnmQso.s 			page 3


  56 001a 0120     		movs	r0, #1
  57 001c FFF7FEFF 		bl	CS_J2_Write
  58              	.LVL1:
  60:main.c        ****     CS_J3_Write(1);
  59              		.loc 1 60 0
  60 0020 0120     		movs	r0, #1
  61 0022 FFF7FEFF 		bl	CS_J3_Write
  62              	.LVL2:
  61:main.c        ****     
  62:main.c        ****     UART_1_Start();
  63              		.loc 1 62 0
  64 0026 FFF7FEFF 		bl	UART_1_Start
  65              	.LVL3:
  63:main.c        ****     SPIM_1_Start();
  66              		.loc 1 63 0
  67 002a FFF7FEFF 		bl	SPIM_1_Start
  68              	.LVL4:
  64:main.c        ****     ADC_DelSig_1_Start();
  69              		.loc 1 64 0
  70 002e FFF7FEFF 		bl	ADC_DelSig_1_Start
  71              	.LVL5:
  65:main.c        ****     ADC_DelSig_1_StartConvert();
  72              		.loc 1 65 0
  73 0032 FFF7FEFF 		bl	ADC_DelSig_1_StartConvert
  74              	.LVL6:
  66:main.c        ****     NCO_ISR_Start();
  75              		.loc 1 66 0
  76 0036 FFF7FEFF 		bl	NCO_ISR_Start
  77              	.LVL7:
  67:main.c        ****     
  68:main.c        ****     message_buff_init(&msg_buff);
  78              		.loc 1 68 0
  79 003a 1A48     		ldr	r0, .L5+4
  80 003c FFF7FEFF 		bl	message_buff_init
  81              	.LVL8:
  69:main.c        ****     move_queue_init(&move_queue);
  82              		.loc 1 69 0
  83 0040 1948     		ldr	r0, .L5+8
  84 0042 FFF7FEFF 		bl	move_queue_init
  85              	.LVL9:
  70:main.c        ****     joint_init(joints);
  86              		.loc 1 70 0
  87 0046 1948     		ldr	r0, .L5+12
  88 0048 FFF7FEFF 		bl	joint_init
  89              	.LVL10:
  71:main.c        ****     /* Place your initialization/startup code here (e.g. MyInst_Start()) */
  72:main.c        **** 
  73:main.c        ****     UART_1_PutString("COM port open");
  90              		.loc 1 73 0
  91 004c 1848     		ldr	r0, .L5+16
  92 004e FFF7FEFF 		bl	UART_1_PutString
  93              	.LVL11:
  74:main.c        ****     send_cmd(SPI_REG_CLRERR|SPI_CMD_READ,0);
  94              		.loc 1 74 0
  95 0052 0021     		movs	r1, #0
  96 0054 44F20100 		movw	r0, #16385
  97 0058 FFF7FEFF 		bl	send_cmd
ARM GAS  C:\Users\pajoh\AppData\Local\Temp\ccmnmQso.s 			page 4


  98              	.LVL12:
  75:main.c        ****     send_cmd(SPI_REG_CLRERR|SPI_CMD_READ,1);
  99              		.loc 1 75 0
 100 005c 0121     		movs	r1, #1
 101 005e 44F20100 		movw	r0, #16385
 102 0062 FFF7FEFF 		bl	send_cmd
 103              	.LVL13:
  76:main.c        ****     tick_isr_Start();
 104              		.loc 1 76 0
 105 0066 FFF7FEFF 		bl	tick_isr_Start
 106              	.LVL14:
  77:main.c        ****     rx_isr_Start();
 107              		.loc 1 77 0
 108 006a FFF7FEFF 		bl	rx_isr_Start
 109              	.LVL15:
 110              	.L2:
  78:main.c        ****     for(;;)
  79:main.c        ****     {
  80:main.c        ****         /* Place your application code here. */
  81:main.c        ****         
  82:main.c        ****         //grab and interpret UART commands
  83:main.c        ****         message_buff_execute(&msg_buff);
 111              		.loc 1 83 0
 112 006e 0D48     		ldr	r0, .L5+4
 113 0070 FFF7FEFF 		bl	message_buff_execute
 114              	.LVL16:
  84:main.c        ****         if(tick){
 115              		.loc 1 84 0
 116 0074 0F4B     		ldr	r3, .L5+20
 117 0076 1B78     		ldrb	r3, [r3]	@ zero_extendqisi2
 118 0078 13F0FF0F 		tst	r3, #255
 119 007c F7D0     		beq	.L2
  85:main.c        ****             tick = 0;
 120              		.loc 1 85 0
 121 007e 0022     		movs	r2, #0
 122 0080 0C4B     		ldr	r3, .L5+20
 123 0082 1A70     		strb	r2, [r3]
  86:main.c        ****             //sprintf(TransmitBuffer,"LIM1: %d, LIM2: %d, LIM3: %d\n\r",joints[0].limit,joints[1].l
  87:main.c        ****             //UART_1_PutString(TransmitBuffer);
  88:main.c        ****             sprintf(TransmitBuffer,"J1 Pos: %ld, J2 Pos: %ld, J3 Pos: %ld\n\r",joints[0].pos,joints
 124              		.loc 1 88 0
 125 0084 0949     		ldr	r1, .L5+12
 126 0086 8A68     		ldr	r2, [r1, #8]
 127 0088 4B6A     		ldr	r3, [r1, #36]
 128 008a 096C     		ldr	r1, [r1, #64]
 129 008c 0A4C     		ldr	r4, .L5+24
 130 008e 0091     		str	r1, [sp]
 131 0090 0A49     		ldr	r1, .L5+28
 132 0092 2046     		mov	r0, r4
 133 0094 FFF7FEFF 		bl	sprintf
 134              	.LVL17:
  89:main.c        ****             UART_1_PutString(TransmitBuffer);
 135              		.loc 1 89 0
 136 0098 2046     		mov	r0, r4
 137 009a FFF7FEFF 		bl	UART_1_PutString
 138              	.LVL18:
 139 009e E6E7     		b	.L2
ARM GAS  C:\Users\pajoh\AppData\Local\Temp\ccmnmQso.s 			page 5


 140              	.L6:
 141              		.align	2
 142              	.L5:
 143 00a0 00000000 		.word	read_angle_command
 144 00a4 00000000 		.word	msg_buff
 145 00a8 00000000 		.word	move_queue
 146 00ac 00000000 		.word	joints
 147 00b0 00000000 		.word	.LC0
 148 00b4 00000000 		.word	tick
 149 00b8 00000000 		.word	TransmitBuffer
 150 00bc 10000000 		.word	.LC1
 151              		.cfi_endproc
 152              	.LFE64:
 153              		.size	main, .-main
 154              		.section	.text.update_positions,"ax",%progbits
 155              		.align	2
 156              		.global	update_positions
 157              		.thumb
 158              		.thumb_func
 159              		.type	update_positions, %function
 160              	update_positions:
 161              	.LFB66:
  90:main.c        ****         }
  91:main.c        ****     }
  92:main.c        **** }
  93:main.c        **** 
  94:main.c        **** void home_joints(void){
  95:main.c        ****     //home joints
  96:main.c        ****     J1_EN_Write(0);
  97:main.c        ****     J2_EN_Write(0);
  98:main.c        ****     J3_EN_Write(0);
  99:main.c        ****     update_positions();
 100:main.c        ****     while(joints[0].pos > J1_home + 100 || joints[0].pos < J1_home - 100){
 101:main.c        ****         //home J1
 102:main.c        ****         update_positions();
 103:main.c        ****         if(joints[0].pos - J1_home > 0){
 104:main.c        ****             set_velocity(1,vel_to_tuningWord(1000),J1_REV);
 105:main.c        ****         }
 106:main.c        ****         if(joints[0].pos - J1_home < 0){
 107:main.c        ****             set_velocity(1,vel_to_tuningWord(1000),J1_FWD);   
 108:main.c        ****         }
 109:main.c        ****     }
 110:main.c        ****     set_velocity(1,0,J1_FWD);
 111:main.c        ****     update_positions();
 112:main.c        ****     while(joints[1].limit != 0){
 113:main.c        ****         update_positions();
 114:main.c        ****         J2_DIR_Write(J2_FWD);
 115:main.c        ****         J3_DIR_Write(J3_FWD);
 116:main.c        ****         set_velocity(2,vel_to_tuningWord(1000),J2_FWD);
 117:main.c        ****         set_velocity(3,vel_to_tuningWord(1000),J3_FWD);
 118:main.c        ****     }
 119:main.c        ****     set_velocity(2,vel_to_tuningWord(0),J2_FWD);
 120:main.c        ****     set_velocity(3,vel_to_tuningWord(0),J3_FWD);
 121:main.c        ****     update_positions();
 122:main.c        ****     while(joints[2].limit != 0){
 123:main.c        ****         update_positions();
 124:main.c        ****         set_velocity(3,vel_to_tuningWord(1000),J3_REV);
ARM GAS  C:\Users\pajoh\AppData\Local\Temp\ccmnmQso.s 			page 6


 125:main.c        ****     }
 126:main.c        ****     set_velocity(3,vel_to_tuningWord(0),J3_REV);
 127:main.c        ****     J1_EN_Write(1);
 128:main.c        ****     J2_EN_Write(1);
 129:main.c        ****     J3_EN_Write(1);
 130:main.c        ****     return;
 131:main.c        **** }
 132:main.c        **** 
 133:main.c        **** void update_positions(void){
 162              		.loc 1 133 0
 163              		.cfi_startproc
 164              		@ args = 0, pretend = 0, frame = 0
 165              		@ frame_needed = 0, uses_anonymous_args = 0
 166 0000 10B5     		push	{r4, lr}
 167              		.cfi_def_cfa_offset 8
 168              		.cfi_offset 4, -8
 169              		.cfi_offset 14, -4
 134:main.c        ****     //joint 1, pot for position and home
 135:main.c        ****     if(ADC_DelSig_1_IsEndConversion(ADC_DelSig_1_WAIT_FOR_RESULT)){
 170              		.loc 1 135 0
 171 0002 0020     		movs	r0, #0
 172 0004 FFF7FEFF 		bl	ADC_DelSig_1_IsEndConversion
 173              	.LVL19:
 174 0008 28B1     		cbz	r0, .L8
 136:main.c        ****         joints[0].pos = ADC_DelSig_1_CountsTo_uVolts(ADC_DelSig_1_GetResult32());   
 175              		.loc 1 136 0
 176 000a FFF7FEFF 		bl	ADC_DelSig_1_GetResult32
 177              	.LVL20:
 178 000e FFF7FEFF 		bl	ADC_DelSig_1_CountsTo_uVolts
 179              	.LVL21:
 180 0012 064B     		ldr	r3, .L10
 181 0014 9860     		str	r0, [r3, #8]
 182              	.L8:
 137:main.c        ****     }
 138:main.c        ****     //joint 2, SPI for position
 139:main.c        ****     joints[1].limit = J2_LIM_Read();
 183              		.loc 1 139 0
 184 0016 FFF7FEFF 		bl	J2_LIM_Read
 185              	.LVL22:
 186 001a 044C     		ldr	r4, .L10
 187 001c 84F82C00 		strb	r0, [r4, #44]
 140:main.c        ****     //joint 3, SPI for position
 141:main.c        ****     joints[2].limit = J3_LIM_Read();
 188              		.loc 1 141 0
 189 0020 FFF7FEFF 		bl	J3_LIM_Read
 190              	.LVL23:
 191 0024 84F84800 		strb	r0, [r4, #72]
 192 0028 10BD     		pop	{r4, pc}
 193              	.L11:
 194 002a 00BF     		.align	2
 195              	.L10:
 196 002c 00000000 		.word	joints
 197              		.cfi_endproc
 198              	.LFE66:
 199              		.size	update_positions, .-update_positions
 200              		.section	.text.set_velocity,"ax",%progbits
 201              		.align	2
ARM GAS  C:\Users\pajoh\AppData\Local\Temp\ccmnmQso.s 			page 7


 202              		.global	set_velocity
 203              		.thumb
 204              		.thumb_func
 205              		.type	set_velocity, %function
 206              	set_velocity:
 207              	.LFB67:
 142:main.c        **** }
 143:main.c        **** 
 144:main.c        **** void set_velocity(int joint, int32 tuningWord, char direction){
 208              		.loc 1 144 0
 209              		.cfi_startproc
 210              		@ args = 0, pretend = 0, frame = 0
 211              		@ frame_needed = 0, uses_anonymous_args = 0
 212              		@ link register save eliminated.
 213              	.LVL24:
 214 0000 70B4     		push	{r4, r5, r6}
 215              		.cfi_def_cfa_offset 12
 216              		.cfi_offset 4, -12
 217              		.cfi_offset 5, -8
 218              		.cfi_offset 6, -4
 145:main.c        ****     //set tuning word for each joint
 146:main.c        ****     joints[joint-1].tuningWord = tuningWord;
 219              		.loc 1 146 0
 220 0002 0138     		subs	r0, r0, #1
 221              	.LVL25:
 222 0004 044C     		ldr	r4, .L14
 223 0006 C300     		lsls	r3, r0, #3
 224 0008 1E1A     		subs	r6, r3, r0
 225 000a B500     		lsls	r5, r6, #2
 226 000c 6151     		str	r1, [r4, r5]
 147:main.c        ****     joints[joint-1].dir = direction;
 227              		.loc 1 147 0
 228 000e 2B46     		mov	r3, r5
 229 0010 2344     		add	r3, r3, r4
 230 0012 5A71     		strb	r2, [r3, #5]
 148:main.c        **** }
 231              		.loc 1 148 0
 232 0014 70BC     		pop	{r4, r5, r6}
 233              		.cfi_restore 6
 234              		.cfi_restore 5
 235              		.cfi_restore 4
 236              		.cfi_def_cfa_offset 0
 237 0016 7047     		bx	lr
 238              	.L15:
 239              		.align	2
 240              	.L14:
 241 0018 00000000 		.word	joints
 242              		.cfi_endproc
 243              	.LFE67:
 244              		.size	set_velocity, .-set_velocity
 245              		.global	__aeabi_uldivmod
 246              		.section	.text.vel_to_tuningWord,"ax",%progbits
 247              		.align	2
 248              		.global	vel_to_tuningWord
 249              		.thumb
 250              		.thumb_func
 251              		.type	vel_to_tuningWord, %function
ARM GAS  C:\Users\pajoh\AppData\Local\Temp\ccmnmQso.s 			page 8


 252              	vel_to_tuningWord:
 253              	.LFB68:
 149:main.c        **** 
 150:main.c        **** uint32 vel_to_tuningWord(uint32 velocity){
 254              		.loc 1 150 0
 255              		.cfi_startproc
 256              		@ args = 0, pretend = 0, frame = 0
 257              		@ frame_needed = 0, uses_anonymous_args = 0
 258              	.LVL26:
 259 0000 08B5     		push	{r3, lr}
 260              		.cfi_def_cfa_offset 8
 261              		.cfi_offset 3, -8
 262              		.cfi_offset 14, -4
 263 0002 0146     		mov	r1, r0
 151:main.c        ****     uint64 tw = ((uint64)velocity * 16777216) / 10000;
 264              		.loc 1 151 0
 265 0004 42F21072 		movw	r2, #10000
 266 0008 0023     		movs	r3, #0
 267 000a 0006     		lsls	r0, r0, #24
 268              	.LVL27:
 269 000c 090A     		lsrs	r1, r1, #8
 270              	.LVL28:
 271 000e FFF7FEFF 		bl	__aeabi_uldivmod
 272              	.LVL29:
 152:main.c        ****     return (uint32)tw;
 153:main.c        **** }
 273              		.loc 1 153 0
 274 0012 08BD     		pop	{r3, pc}
 275              		.cfi_endproc
 276              	.LFE68:
 277              		.size	vel_to_tuningWord, .-vel_to_tuningWord
 278              		.section	.text.home_joints,"ax",%progbits
 279              		.align	2
 280              		.global	home_joints
 281              		.thumb
 282              		.thumb_func
 283              		.type	home_joints, %function
 284              	home_joints:
 285              	.LFB65:
  94:main.c        ****     //home joints
 286              		.loc 1 94 0
 287              		.cfi_startproc
 288              		@ args = 0, pretend = 0, frame = 0
 289              		@ frame_needed = 0, uses_anonymous_args = 0
 290 0000 10B5     		push	{r4, lr}
 291              		.cfi_def_cfa_offset 8
 292              		.cfi_offset 4, -8
 293              		.cfi_offset 14, -4
  96:main.c        ****     J2_EN_Write(0);
 294              		.loc 1 96 0
 295 0002 0020     		movs	r0, #0
 296 0004 FFF7FEFF 		bl	J1_EN_Write
 297              	.LVL30:
  97:main.c        ****     J3_EN_Write(0);
 298              		.loc 1 97 0
 299 0008 0020     		movs	r0, #0
 300 000a FFF7FEFF 		bl	J2_EN_Write
ARM GAS  C:\Users\pajoh\AppData\Local\Temp\ccmnmQso.s 			page 9


 301              	.LVL31:
  98:main.c        ****     update_positions();
 302              		.loc 1 98 0
 303 000e 0020     		movs	r0, #0
 304 0010 FFF7FEFF 		bl	J3_EN_Write
 305              	.LVL32:
  99:main.c        ****     while(joints[0].pos > J1_home + 100 || joints[0].pos < J1_home - 100){
 306              		.loc 1 99 0
 307 0014 FFF7FEFF 		bl	update_positions
 308              	.LVL33:
 100:main.c        ****         //home J1
 309              		.loc 1 100 0
 310 0018 21E0     		b	.L21
 311              	.L22:
 102:main.c        ****         if(joints[0].pos - J1_home > 0){
 312              		.loc 1 102 0
 313 001a FFF7FEFF 		bl	update_positions
 314              	.LVL34:
 103:main.c        ****             set_velocity(1,vel_to_tuningWord(1000),J1_REV);
 315              		.loc 1 103 0
 316 001e 424B     		ldr	r3, .L28
 317 0020 9B68     		ldr	r3, [r3, #8]
 318 0022 424A     		ldr	r2, .L28+4
 319 0024 1268     		ldr	r2, [r2]
 320 0026 9B1A     		subs	r3, r3, r2
 321 0028 002B     		cmp	r3, #0
 322 002a 08DD     		ble	.L20
 104:main.c        ****         }
 323              		.loc 1 104 0
 324 002c 4FF47A70 		mov	r0, #1000
 325 0030 FFF7FEFF 		bl	vel_to_tuningWord
 326              	.LVL35:
 327 0034 0122     		movs	r2, #1
 328 0036 0146     		mov	r1, r0
 329 0038 1046     		mov	r0, r2
 330 003a FFF7FEFF 		bl	set_velocity
 331              	.LVL36:
 332              	.L20:
 106:main.c        ****             set_velocity(1,vel_to_tuningWord(1000),J1_FWD);   
 333              		.loc 1 106 0
 334 003e 3A4B     		ldr	r3, .L28
 335 0040 9B68     		ldr	r3, [r3, #8]
 336 0042 3A4A     		ldr	r2, .L28+4
 337 0044 1268     		ldr	r2, [r2]
 338 0046 9B1A     		subs	r3, r3, r2
 339 0048 002B     		cmp	r3, #0
 340 004a 08DA     		bge	.L21
 107:main.c        ****         }
 341              		.loc 1 107 0
 342 004c 4FF47A70 		mov	r0, #1000
 343 0050 FFF7FEFF 		bl	vel_to_tuningWord
 344              	.LVL37:
 345 0054 0022     		movs	r2, #0
 346 0056 0146     		mov	r1, r0
 347 0058 0120     		movs	r0, #1
 348 005a FFF7FEFF 		bl	set_velocity
 349              	.LVL38:
ARM GAS  C:\Users\pajoh\AppData\Local\Temp\ccmnmQso.s 			page 10


 350              	.L21:
 100:main.c        ****         //home J1
 351              		.loc 1 100 0
 352 005e 324B     		ldr	r3, .L28
 353 0060 9A68     		ldr	r2, [r3, #8]
 354 0062 324B     		ldr	r3, .L28+4
 355 0064 1B68     		ldr	r3, [r3]
 356 0066 6433     		adds	r3, r3, #100
 357 0068 9A42     		cmp	r2, r3
 358 006a D6DC     		bgt	.L22
 100:main.c        ****         //home J1
 359              		.loc 1 100 0 is_stmt 0 discriminator 1
 360 006c 2E4B     		ldr	r3, .L28
 361 006e 9A68     		ldr	r2, [r3, #8]
 362 0070 2E4B     		ldr	r3, .L28+4
 363 0072 1B68     		ldr	r3, [r3]
 364 0074 643B     		subs	r3, r3, #100
 365 0076 9A42     		cmp	r2, r3
 366 0078 CFDB     		blt	.L22
 110:main.c        ****     update_positions();
 367              		.loc 1 110 0 is_stmt 1
 368 007a 0022     		movs	r2, #0
 369 007c 1146     		mov	r1, r2
 370 007e 0120     		movs	r0, #1
 371 0080 FFF7FEFF 		bl	set_velocity
 372              	.LVL39:
 111:main.c        ****     while(joints[1].limit != 0){
 373              		.loc 1 111 0
 374 0084 FFF7FEFF 		bl	update_positions
 375              	.LVL40:
 112:main.c        ****         update_positions();
 376              		.loc 1 112 0
 377 0088 16E0     		b	.L23
 378              	.L24:
 113:main.c        ****         J2_DIR_Write(J2_FWD);
 379              		.loc 1 113 0
 380 008a FFF7FEFF 		bl	update_positions
 381              	.LVL41:
 114:main.c        ****         J3_DIR_Write(J3_FWD);
 382              		.loc 1 114 0
 383 008e 0020     		movs	r0, #0
 384 0090 FFF7FEFF 		bl	J2_DIR_Write
 385              	.LVL42:
 115:main.c        ****         set_velocity(2,vel_to_tuningWord(1000),J2_FWD);
 386              		.loc 1 115 0
 387 0094 0020     		movs	r0, #0
 388 0096 FFF7FEFF 		bl	J3_DIR_Write
 389              	.LVL43:
 116:main.c        ****         set_velocity(3,vel_to_tuningWord(1000),J3_FWD);
 390              		.loc 1 116 0
 391 009a 4FF47A70 		mov	r0, #1000
 392 009e FFF7FEFF 		bl	vel_to_tuningWord
 393              	.LVL44:
 394 00a2 0446     		mov	r4, r0
 395 00a4 0022     		movs	r2, #0
 396 00a6 0146     		mov	r1, r0
 397 00a8 0220     		movs	r0, #2
ARM GAS  C:\Users\pajoh\AppData\Local\Temp\ccmnmQso.s 			page 11


 398 00aa FFF7FEFF 		bl	set_velocity
 399              	.LVL45:
 117:main.c        ****     }
 400              		.loc 1 117 0
 401 00ae 0022     		movs	r2, #0
 402 00b0 2146     		mov	r1, r4
 403 00b2 0320     		movs	r0, #3
 404 00b4 FFF7FEFF 		bl	set_velocity
 405              	.LVL46:
 406              	.L23:
 112:main.c        ****         update_positions();
 407              		.loc 1 112 0
 408 00b8 1B4B     		ldr	r3, .L28
 409 00ba 93F82C30 		ldrb	r3, [r3, #44]	@ zero_extendqisi2
 410 00be 13F0FF0F 		tst	r3, #255
 411 00c2 E2D1     		bne	.L24
 119:main.c        ****     set_velocity(3,vel_to_tuningWord(0),J3_FWD);
 412              		.loc 1 119 0
 413 00c4 0020     		movs	r0, #0
 414 00c6 FFF7FEFF 		bl	vel_to_tuningWord
 415              	.LVL47:
 416 00ca 0446     		mov	r4, r0
 417 00cc 0022     		movs	r2, #0
 418 00ce 0146     		mov	r1, r0
 419 00d0 0220     		movs	r0, #2
 420 00d2 FFF7FEFF 		bl	set_velocity
 421              	.LVL48:
 120:main.c        ****     update_positions();
 422              		.loc 1 120 0
 423 00d6 0022     		movs	r2, #0
 424 00d8 2146     		mov	r1, r4
 425 00da 0320     		movs	r0, #3
 426 00dc FFF7FEFF 		bl	set_velocity
 427              	.LVL49:
 121:main.c        ****     while(joints[2].limit != 0){
 428              		.loc 1 121 0
 429 00e0 FFF7FEFF 		bl	update_positions
 430              	.LVL50:
 122:main.c        ****         update_positions();
 431              		.loc 1 122 0
 432 00e4 0AE0     		b	.L25
 433              	.L26:
 123:main.c        ****         set_velocity(3,vel_to_tuningWord(1000),J3_REV);
 434              		.loc 1 123 0
 435 00e6 FFF7FEFF 		bl	update_positions
 436              	.LVL51:
 124:main.c        ****     }
 437              		.loc 1 124 0
 438 00ea 4FF47A70 		mov	r0, #1000
 439 00ee FFF7FEFF 		bl	vel_to_tuningWord
 440              	.LVL52:
 441 00f2 0122     		movs	r2, #1
 442 00f4 0146     		mov	r1, r0
 443 00f6 0320     		movs	r0, #3
 444 00f8 FFF7FEFF 		bl	set_velocity
 445              	.LVL53:
 446              	.L25:
ARM GAS  C:\Users\pajoh\AppData\Local\Temp\ccmnmQso.s 			page 12


 122:main.c        ****         update_positions();
 447              		.loc 1 122 0
 448 00fc 0A4B     		ldr	r3, .L28
 449 00fe 93F84830 		ldrb	r3, [r3, #72]	@ zero_extendqisi2
 450 0102 13F0FF0F 		tst	r3, #255
 451 0106 EED1     		bne	.L26
 126:main.c        ****     J1_EN_Write(1);
 452              		.loc 1 126 0
 453 0108 0122     		movs	r2, #1
 454 010a 2146     		mov	r1, r4
 455 010c 0320     		movs	r0, #3
 456 010e FFF7FEFF 		bl	set_velocity
 457              	.LVL54:
 127:main.c        ****     J2_EN_Write(1);
 458              		.loc 1 127 0
 459 0112 0120     		movs	r0, #1
 460 0114 FFF7FEFF 		bl	J1_EN_Write
 461              	.LVL55:
 128:main.c        ****     J3_EN_Write(1);
 462              		.loc 1 128 0
 463 0118 0120     		movs	r0, #1
 464 011a FFF7FEFF 		bl	J2_EN_Write
 465              	.LVL56:
 129:main.c        ****     return;
 466              		.loc 1 129 0
 467 011e 0120     		movs	r0, #1
 468 0120 FFF7FEFF 		bl	J3_EN_Write
 469              	.LVL57:
 470 0124 10BD     		pop	{r4, pc}
 471              	.L29:
 472 0126 00BF     		.align	2
 473              	.L28:
 474 0128 00000000 		.word	joints
 475 012c 00000000 		.word	J1_home
 476              		.cfi_endproc
 477              	.LFE65:
 478              		.size	home_joints, .-home_joints
 479              		.comm	tick,1,1
 480              		.comm	TransmitBuffer,80,4
 481              		.comm	Ch,1,1
 482              		.global	J3_ctrl_val
 483              		.global	J2_ctrl_val
 484              		.global	J1_ctrl_val
 485              		.global	home
 486              		.global	moveJ3
 487              		.global	moveJ2
 488              		.global	moveJ1
 489              		.comm	joints,84,4
 490              		.comm	J1_home,4,4
 491              		.comm	read_angle_command,2,2
 492              		.comm	rx_index,4,4
 493              		.comm	rx_buffer,80,4
 494              		.comm	move_queue,1208,4
 495              		.comm	msg_buff,2006,4
 496              		.section	.rodata.str1.4,"aMS",%progbits,1
 497              		.align	2
 498              	.LC0:
ARM GAS  C:\Users\pajoh\AppData\Local\Temp\ccmnmQso.s 			page 13


 499 0000 434F4D20 		.ascii	"COM port open\000"
 499      706F7274 
 499      206F7065 
 499      6E00
 500 000e 0000     		.space	2
 501              	.LC1:
 502 0010 4A312050 		.ascii	"J1 Pos: %ld, J2 Pos: %ld, J3 Pos: %ld\012\015\000"
 502      6F733A20 
 502      256C642C 
 502      204A3220 
 502      506F733A 
 503              		.bss
 504              		.type	J3_ctrl_val, %object
 505              		.size	J3_ctrl_val, 1
 506              	J3_ctrl_val:
 507 0000 00       		.space	1
 508              		.type	J2_ctrl_val, %object
 509              		.size	J2_ctrl_val, 1
 510              	J2_ctrl_val:
 511 0001 00       		.space	1
 512              		.type	J1_ctrl_val, %object
 513              		.size	J1_ctrl_val, 1
 514              	J1_ctrl_val:
 515 0002 00       		.space	1
 516              		.type	home, %object
 517              		.size	home, 1
 518              	home:
 519 0003 00       		.space	1
 520              		.type	moveJ3, %object
 521              		.size	moveJ3, 1
 522              	moveJ3:
 523 0004 00       		.space	1
 524              		.type	moveJ2, %object
 525              		.size	moveJ2, 1
 526              	moveJ2:
 527 0005 00       		.space	1
 528              		.type	moveJ1, %object
 529              		.size	moveJ1, 1
 530              	moveJ1:
 531 0006 00       		.space	1
 532              		.text
 533              	.Letext0:
 534              		.file 2 "c:\\program files (x86)\\cypress\\psoc creator\\4.2\\psoc creator\\import\\gnu\\arm\\5.4.
 535              		.file 3 "c:\\program files (x86)\\cypress\\psoc creator\\4.2\\psoc creator\\import\\gnu\\arm\\5.4.
 536              		.file 4 "Generated_Source\\PSoC5/cytypes.h"
 537              		.file 5 "comms.h"
 538              		.file 6 "joints.h"
 539              		.file 7 "Generated_Source\\PSoC5/core_cm3.h"
 540              		.file 8 "as5048.h"
 541              		.file 9 "Generated_Source\\PSoC5/CS_J2.h"
 542              		.file 10 "Generated_Source\\PSoC5/CS_J3.h"
 543              		.file 11 "Generated_Source\\PSoC5/UART_1.h"
 544              		.file 12 "Generated_Source\\PSoC5/SPIM_1.h"
 545              		.file 13 "Generated_Source\\PSoC5/ADC_DelSig_1.h"
 546              		.file 14 "Generated_Source\\PSoC5/NCO_ISR.h"
 547              		.file 15 "Generated_Source\\PSoC5/tick_isr.h"
 548              		.file 16 "Generated_Source\\PSoC5/rx_isr.h"
ARM GAS  C:\Users\pajoh\AppData\Local\Temp\ccmnmQso.s 			page 14


 549              		.file 17 "c:\\program files (x86)\\cypress\\psoc creator\\4.2\\psoc creator\\import\\gnu\\arm\\5.4
 550              		.file 18 "Generated_Source\\PSoC5/J2_LIM.h"
 551              		.file 19 "Generated_Source\\PSoC5/J3_LIM.h"
 552              		.file 20 "Generated_Source\\PSoC5/J1_EN.h"
 553              		.file 21 "Generated_Source\\PSoC5/J2_EN.h"
 554              		.file 22 "Generated_Source\\PSoC5/J3_EN.h"
 555              		.file 23 "Generated_Source\\PSoC5/J2_DIR.h"
 556              		.file 24 "Generated_Source\\PSoC5/J3_DIR.h"