ARM GAS  C:\Users\pajoh\AppData\Local\Temp\ccSIQt9W.s 			page 1


   1              		.syntax unified
   2              		.cpu cortex-m3
   3              		.fpu softvfp
   4              		.eabi_attribute 20, 1
   5              		.eabi_attribute 21, 1
   6              		.eabi_attribute 23, 3
   7              		.eabi_attribute 24, 1
   8              		.eabi_attribute 25, 1
   9              		.eabi_attribute 26, 1
  10              		.eabi_attribute 30, 1
  11              		.eabi_attribute 34, 1
  12              		.eabi_attribute 18, 4
  13              		.thumb
  14              		.syntax unified
  15              		.file	"NCO_ISR.c"
  16              		.text
  17              	.Ltext0:
  18              		.cfi_sections	.debug_frame
  19              		.section	.text.NCO_ISR_Interrupt,"ax",%progbits
  20              		.align	2
  21              		.global	NCO_ISR_Interrupt
  22              		.thumb
  23              		.thumb_func
  24              		.type	NCO_ISR_Interrupt, %function
  25              	NCO_ISR_Interrupt:
  26              	.LFB67:
  27              		.file 1 "Generated_Source\\PSoC5\\NCO_ISR.c"
   1:Generated_Source\PSoC5/NCO_ISR.c **** /*******************************************************************************
   2:Generated_Source\PSoC5/NCO_ISR.c **** * File Name: NCO_ISR.c  
   3:Generated_Source\PSoC5/NCO_ISR.c **** * Version 1.70
   4:Generated_Source\PSoC5/NCO_ISR.c **** *
   5:Generated_Source\PSoC5/NCO_ISR.c **** *  Description:
   6:Generated_Source\PSoC5/NCO_ISR.c **** *   API for controlling the state of an interrupt.
   7:Generated_Source\PSoC5/NCO_ISR.c **** *
   8:Generated_Source\PSoC5/NCO_ISR.c **** *
   9:Generated_Source\PSoC5/NCO_ISR.c **** *  Note:
  10:Generated_Source\PSoC5/NCO_ISR.c **** *
  11:Generated_Source\PSoC5/NCO_ISR.c **** ********************************************************************************
  12:Generated_Source\PSoC5/NCO_ISR.c **** * Copyright 2008-2015, Cypress Semiconductor Corporation.  All rights reserved.
  13:Generated_Source\PSoC5/NCO_ISR.c **** * You may use this file only in accordance with the license, terms, conditions, 
  14:Generated_Source\PSoC5/NCO_ISR.c **** * disclaimers, and limitations in the end user license agreement accompanying 
  15:Generated_Source\PSoC5/NCO_ISR.c **** * the software package with which this file was provided.
  16:Generated_Source\PSoC5/NCO_ISR.c **** *******************************************************************************/
  17:Generated_Source\PSoC5/NCO_ISR.c **** 
  18:Generated_Source\PSoC5/NCO_ISR.c **** 
  19:Generated_Source\PSoC5/NCO_ISR.c **** #include <cydevice_trm.h>
  20:Generated_Source\PSoC5/NCO_ISR.c **** #include <CyLib.h>
  21:Generated_Source\PSoC5/NCO_ISR.c **** #include <NCO_ISR.h>
  22:Generated_Source\PSoC5/NCO_ISR.c **** #include "cyapicallbacks.h"
  23:Generated_Source\PSoC5/NCO_ISR.c **** 
  24:Generated_Source\PSoC5/NCO_ISR.c **** #if !defined(NCO_ISR__REMOVED) /* Check for removal by optimization */
  25:Generated_Source\PSoC5/NCO_ISR.c **** 
  26:Generated_Source\PSoC5/NCO_ISR.c **** /*******************************************************************************
  27:Generated_Source\PSoC5/NCO_ISR.c **** *  Place your includes, defines and code here 
  28:Generated_Source\PSoC5/NCO_ISR.c **** ********************************************************************************/
  29:Generated_Source\PSoC5/NCO_ISR.c **** /* `#START NCO_ISR_intc` */
  30:Generated_Source\PSoC5/NCO_ISR.c **** #include "project.h"
ARM GAS  C:\Users\pajoh\AppData\Local\Temp\ccSIQt9W.s 			page 2


  31:Generated_Source\PSoC5/NCO_ISR.c **** #include "comms.h"
  32:Generated_Source\PSoC5/NCO_ISR.c **** #include "stdio.h"
  33:Generated_Source\PSoC5/NCO_ISR.c **** #include "joints.h"
  34:Generated_Source\PSoC5/NCO_ISR.c **** /* `#END` */
  35:Generated_Source\PSoC5/NCO_ISR.c **** 
  36:Generated_Source\PSoC5/NCO_ISR.c **** #ifndef CYINT_IRQ_BASE
  37:Generated_Source\PSoC5/NCO_ISR.c **** #define CYINT_IRQ_BASE      16
  38:Generated_Source\PSoC5/NCO_ISR.c **** #endif /* CYINT_IRQ_BASE */
  39:Generated_Source\PSoC5/NCO_ISR.c **** #ifndef CYINT_VECT_TABLE
  40:Generated_Source\PSoC5/NCO_ISR.c **** #define CYINT_VECT_TABLE    ((cyisraddress **) CYREG_NVIC_VECT_OFFSET)
  41:Generated_Source\PSoC5/NCO_ISR.c **** #endif /* CYINT_VECT_TABLE */
  42:Generated_Source\PSoC5/NCO_ISR.c **** 
  43:Generated_Source\PSoC5/NCO_ISR.c **** /* Declared in startup, used to set unused interrupts to. */
  44:Generated_Source\PSoC5/NCO_ISR.c **** CY_ISR_PROTO(IntDefaultHandler);
  45:Generated_Source\PSoC5/NCO_ISR.c **** 
  46:Generated_Source\PSoC5/NCO_ISR.c **** 
  47:Generated_Source\PSoC5/NCO_ISR.c **** /*******************************************************************************
  48:Generated_Source\PSoC5/NCO_ISR.c **** * Function Name: NCO_ISR_Start
  49:Generated_Source\PSoC5/NCO_ISR.c **** ********************************************************************************
  50:Generated_Source\PSoC5/NCO_ISR.c **** *
  51:Generated_Source\PSoC5/NCO_ISR.c **** * Summary:
  52:Generated_Source\PSoC5/NCO_ISR.c **** *  Set up the interrupt and enable it. This function disables the interrupt, 
  53:Generated_Source\PSoC5/NCO_ISR.c **** *  sets the default interrupt vector, sets the priority from the value in the
  54:Generated_Source\PSoC5/NCO_ISR.c **** *  Design Wide Resources Interrupt Editor, then enables the interrupt to the 
  55:Generated_Source\PSoC5/NCO_ISR.c **** *  interrupt controller.
  56:Generated_Source\PSoC5/NCO_ISR.c **** *
  57:Generated_Source\PSoC5/NCO_ISR.c **** * Parameters:  
  58:Generated_Source\PSoC5/NCO_ISR.c **** *   None
  59:Generated_Source\PSoC5/NCO_ISR.c **** *
  60:Generated_Source\PSoC5/NCO_ISR.c **** * Return:
  61:Generated_Source\PSoC5/NCO_ISR.c **** *   None
  62:Generated_Source\PSoC5/NCO_ISR.c **** *
  63:Generated_Source\PSoC5/NCO_ISR.c **** *******************************************************************************/
  64:Generated_Source\PSoC5/NCO_ISR.c **** void NCO_ISR_Start(void)
  65:Generated_Source\PSoC5/NCO_ISR.c **** {
  66:Generated_Source\PSoC5/NCO_ISR.c ****     /* For all we know the interrupt is active. */
  67:Generated_Source\PSoC5/NCO_ISR.c ****     NCO_ISR_Disable();
  68:Generated_Source\PSoC5/NCO_ISR.c **** 
  69:Generated_Source\PSoC5/NCO_ISR.c ****     /* Set the ISR to point to the NCO_ISR Interrupt. */
  70:Generated_Source\PSoC5/NCO_ISR.c ****     NCO_ISR_SetVector(&NCO_ISR_Interrupt);
  71:Generated_Source\PSoC5/NCO_ISR.c **** 
  72:Generated_Source\PSoC5/NCO_ISR.c ****     /* Set the priority. */
  73:Generated_Source\PSoC5/NCO_ISR.c ****     NCO_ISR_SetPriority((uint8)NCO_ISR_INTC_PRIOR_NUMBER);
  74:Generated_Source\PSoC5/NCO_ISR.c **** 
  75:Generated_Source\PSoC5/NCO_ISR.c ****     /* Enable it. */
  76:Generated_Source\PSoC5/NCO_ISR.c ****     NCO_ISR_Enable();
  77:Generated_Source\PSoC5/NCO_ISR.c **** }
  78:Generated_Source\PSoC5/NCO_ISR.c **** 
  79:Generated_Source\PSoC5/NCO_ISR.c **** 
  80:Generated_Source\PSoC5/NCO_ISR.c **** /*******************************************************************************
  81:Generated_Source\PSoC5/NCO_ISR.c **** * Function Name: NCO_ISR_StartEx
  82:Generated_Source\PSoC5/NCO_ISR.c **** ********************************************************************************
  83:Generated_Source\PSoC5/NCO_ISR.c **** *
  84:Generated_Source\PSoC5/NCO_ISR.c **** * Summary:
  85:Generated_Source\PSoC5/NCO_ISR.c **** *  Sets up the interrupt and enables it. This function disables the interrupt,
  86:Generated_Source\PSoC5/NCO_ISR.c **** *  sets the interrupt vector based on the address passed in, sets the priority 
  87:Generated_Source\PSoC5/NCO_ISR.c **** *  from the value in the Design Wide Resources Interrupt Editor, then enables 
ARM GAS  C:\Users\pajoh\AppData\Local\Temp\ccSIQt9W.s 			page 3


  88:Generated_Source\PSoC5/NCO_ISR.c **** *  the interrupt to the interrupt controller.
  89:Generated_Source\PSoC5/NCO_ISR.c **** *  
  90:Generated_Source\PSoC5/NCO_ISR.c **** *  When defining ISR functions, the CY_ISR and CY_ISR_PROTO macros should be 
  91:Generated_Source\PSoC5/NCO_ISR.c **** *  used to provide consistent definition across compilers:
  92:Generated_Source\PSoC5/NCO_ISR.c **** *  
  93:Generated_Source\PSoC5/NCO_ISR.c **** *  Function definition example:
  94:Generated_Source\PSoC5/NCO_ISR.c **** *   CY_ISR(MyISR)
  95:Generated_Source\PSoC5/NCO_ISR.c **** *   {
  96:Generated_Source\PSoC5/NCO_ISR.c **** *   }
  97:Generated_Source\PSoC5/NCO_ISR.c **** *   Function prototype example:
  98:Generated_Source\PSoC5/NCO_ISR.c **** *   CY_ISR_PROTO(MyISR);
  99:Generated_Source\PSoC5/NCO_ISR.c **** *
 100:Generated_Source\PSoC5/NCO_ISR.c **** * Parameters:  
 101:Generated_Source\PSoC5/NCO_ISR.c **** *   address: Address of the ISR to set in the interrupt vector table.
 102:Generated_Source\PSoC5/NCO_ISR.c **** *
 103:Generated_Source\PSoC5/NCO_ISR.c **** * Return:
 104:Generated_Source\PSoC5/NCO_ISR.c **** *   None
 105:Generated_Source\PSoC5/NCO_ISR.c **** *
 106:Generated_Source\PSoC5/NCO_ISR.c **** *******************************************************************************/
 107:Generated_Source\PSoC5/NCO_ISR.c **** void NCO_ISR_StartEx(cyisraddress address)
 108:Generated_Source\PSoC5/NCO_ISR.c **** {
 109:Generated_Source\PSoC5/NCO_ISR.c ****     /* For all we know the interrupt is active. */
 110:Generated_Source\PSoC5/NCO_ISR.c ****     NCO_ISR_Disable();
 111:Generated_Source\PSoC5/NCO_ISR.c **** 
 112:Generated_Source\PSoC5/NCO_ISR.c ****     /* Set the ISR to point to the NCO_ISR Interrupt. */
 113:Generated_Source\PSoC5/NCO_ISR.c ****     NCO_ISR_SetVector(address);
 114:Generated_Source\PSoC5/NCO_ISR.c **** 
 115:Generated_Source\PSoC5/NCO_ISR.c ****     /* Set the priority. */
 116:Generated_Source\PSoC5/NCO_ISR.c ****     NCO_ISR_SetPriority((uint8)NCO_ISR_INTC_PRIOR_NUMBER);
 117:Generated_Source\PSoC5/NCO_ISR.c **** 
 118:Generated_Source\PSoC5/NCO_ISR.c ****     /* Enable it. */
 119:Generated_Source\PSoC5/NCO_ISR.c ****     NCO_ISR_Enable();
 120:Generated_Source\PSoC5/NCO_ISR.c **** }
 121:Generated_Source\PSoC5/NCO_ISR.c **** 
 122:Generated_Source\PSoC5/NCO_ISR.c **** 
 123:Generated_Source\PSoC5/NCO_ISR.c **** /*******************************************************************************
 124:Generated_Source\PSoC5/NCO_ISR.c **** * Function Name: NCO_ISR_Stop
 125:Generated_Source\PSoC5/NCO_ISR.c **** ********************************************************************************
 126:Generated_Source\PSoC5/NCO_ISR.c **** *
 127:Generated_Source\PSoC5/NCO_ISR.c **** * Summary:
 128:Generated_Source\PSoC5/NCO_ISR.c **** *   Disables and removes the interrupt.
 129:Generated_Source\PSoC5/NCO_ISR.c **** *
 130:Generated_Source\PSoC5/NCO_ISR.c **** * Parameters:  
 131:Generated_Source\PSoC5/NCO_ISR.c **** *   None
 132:Generated_Source\PSoC5/NCO_ISR.c **** *
 133:Generated_Source\PSoC5/NCO_ISR.c **** * Return:
 134:Generated_Source\PSoC5/NCO_ISR.c **** *   None
 135:Generated_Source\PSoC5/NCO_ISR.c **** *
 136:Generated_Source\PSoC5/NCO_ISR.c **** *******************************************************************************/
 137:Generated_Source\PSoC5/NCO_ISR.c **** void NCO_ISR_Stop(void)
 138:Generated_Source\PSoC5/NCO_ISR.c **** {
 139:Generated_Source\PSoC5/NCO_ISR.c ****     /* Disable this interrupt. */
 140:Generated_Source\PSoC5/NCO_ISR.c ****     NCO_ISR_Disable();
 141:Generated_Source\PSoC5/NCO_ISR.c **** 
 142:Generated_Source\PSoC5/NCO_ISR.c ****     /* Set the ISR to point to the passive one. */
 143:Generated_Source\PSoC5/NCO_ISR.c ****     NCO_ISR_SetVector(&IntDefaultHandler);
 144:Generated_Source\PSoC5/NCO_ISR.c **** }
ARM GAS  C:\Users\pajoh\AppData\Local\Temp\ccSIQt9W.s 			page 4


 145:Generated_Source\PSoC5/NCO_ISR.c **** 
 146:Generated_Source\PSoC5/NCO_ISR.c **** 
 147:Generated_Source\PSoC5/NCO_ISR.c **** /*******************************************************************************
 148:Generated_Source\PSoC5/NCO_ISR.c **** * Function Name: NCO_ISR_Interrupt
 149:Generated_Source\PSoC5/NCO_ISR.c **** ********************************************************************************
 150:Generated_Source\PSoC5/NCO_ISR.c **** *
 151:Generated_Source\PSoC5/NCO_ISR.c **** * Summary:
 152:Generated_Source\PSoC5/NCO_ISR.c **** *   The default Interrupt Service Routine for NCO_ISR.
 153:Generated_Source\PSoC5/NCO_ISR.c **** *
 154:Generated_Source\PSoC5/NCO_ISR.c **** *   Add custom code between the coments to keep the next version of this file
 155:Generated_Source\PSoC5/NCO_ISR.c **** *   from over writting your code.
 156:Generated_Source\PSoC5/NCO_ISR.c **** *
 157:Generated_Source\PSoC5/NCO_ISR.c **** * Parameters:  
 158:Generated_Source\PSoC5/NCO_ISR.c **** *
 159:Generated_Source\PSoC5/NCO_ISR.c **** * Return:
 160:Generated_Source\PSoC5/NCO_ISR.c **** *   None
 161:Generated_Source\PSoC5/NCO_ISR.c **** *
 162:Generated_Source\PSoC5/NCO_ISR.c **** *******************************************************************************/
 163:Generated_Source\PSoC5/NCO_ISR.c **** CY_ISR(NCO_ISR_Interrupt)
 164:Generated_Source\PSoC5/NCO_ISR.c **** {
  28              		.loc 1 164 0
  29              		.cfi_startproc
  30              		@ args = 0, pretend = 0, frame = 0
  31              		@ frame_needed = 0, uses_anonymous_args = 0
  32 0000 10B5     		push	{r4, lr}
  33              		.cfi_def_cfa_offset 8
  34              		.cfi_offset 4, -8
  35              		.cfi_offset 14, -4
 165:Generated_Source\PSoC5/NCO_ISR.c ****     #ifdef NCO_ISR_INTERRUPT_INTERRUPT_CALLBACK
 166:Generated_Source\PSoC5/NCO_ISR.c ****         NCO_ISR_Interrupt_InterruptCallback();
 167:Generated_Source\PSoC5/NCO_ISR.c ****     #endif /* NCO_ISR_INTERRUPT_INTERRUPT_CALLBACK */ 
 168:Generated_Source\PSoC5/NCO_ISR.c **** 
 169:Generated_Source\PSoC5/NCO_ISR.c ****     /*  Place your Interrupt code here. */
 170:Generated_Source\PSoC5/NCO_ISR.c ****     /* `#START NCO_ISR_Interrupt` */
 171:Generated_Source\PSoC5/NCO_ISR.c ****     //accumulator tuningwords
 172:Generated_Source\PSoC5/NCO_ISR.c ****     int i;
 173:Generated_Source\PSoC5/NCO_ISR.c ****     Move volatile * move;
 174:Generated_Source\PSoC5/NCO_ISR.c ****     //get the most recent move from the queue
 175:Generated_Source\PSoC5/NCO_ISR.c ****     move = move_queue_get(&move_queue);
  36              		.loc 1 175 0
  37 0002 4948     		ldr	r0, .L13
  38 0004 FFF7FEFF 		bl	move_queue_get
  39              	.LVL0:
 176:Generated_Source\PSoC5/NCO_ISR.c ****     //check for null pointer
 177:Generated_Source\PSoC5/NCO_ISR.c ****     if(move != 0){
  40              		.loc 1 177 0
  41 0008 F8B1     		cbz	r0, .L2
 178:Generated_Source\PSoC5/NCO_ISR.c ****         switch(move->joint){
  42              		.loc 1 178 0
  43 000a 0378     		ldrb	r3, [r0]	@ zero_extendqisi2
  44 000c DBB2     		uxtb	r3, r3
  45 000e 022B     		cmp	r3, #2
  46 0010 0FD0     		beq	.L3
  47 0012 032B     		cmp	r3, #3
  48 0014 1BD0     		beq	.L4
  49 0016 012B     		cmp	r3, #1
  50 0018 17D1     		bne	.L2
ARM GAS  C:\Users\pajoh\AppData\Local\Temp\ccSIQt9W.s 			page 5


 179:Generated_Source\PSoC5/NCO_ISR.c ****             case 1:
 180:Generated_Source\PSoC5/NCO_ISR.c ****                 joints[0].dir = move->direction;
  51              		.loc 1 180 0
  52 001a 4178     		ldrb	r1, [r0, #1]	@ zero_extendqisi2
  53 001c C9B2     		uxtb	r1, r1
  54 001e 434B     		ldr	r3, .L13+4
  55 0020 5971     		strb	r1, [r3, #5]
 181:Generated_Source\PSoC5/NCO_ISR.c ****                 joints[0].tuningWord = move->tuningWord;
  56              		.loc 1 181 0
  57 0022 4168     		ldr	r1, [r0, #4]
  58 0024 1960     		str	r1, [r3]
 182:Generated_Source\PSoC5/NCO_ISR.c ****                 joints[0].duration = move->duration;
  59              		.loc 1 182 0
  60 0026 8268     		ldr	r2, [r0, #8]
  61 0028 DA60     		str	r2, [r3, #12]
 183:Generated_Source\PSoC5/NCO_ISR.c ****                 J1_EN_Write(0);
  62              		.loc 1 183 0
  63 002a 0020     		movs	r0, #0
  64              	.LVL1:
  65 002c FFF7FEFF 		bl	J1_EN_Write
  66              	.LVL2:
 184:Generated_Source\PSoC5/NCO_ISR.c ****             break;
  67              		.loc 1 184 0
  68 0030 0BE0     		b	.L2
  69              	.LVL3:
  70              	.L3:
 185:Generated_Source\PSoC5/NCO_ISR.c ****             case 2:
 186:Generated_Source\PSoC5/NCO_ISR.c ****                 joints[1].dir = move->direction;
  71              		.loc 1 186 0
  72 0032 4178     		ldrb	r1, [r0, #1]	@ zero_extendqisi2
  73 0034 C9B2     		uxtb	r1, r1
  74 0036 3D4B     		ldr	r3, .L13+4
  75 0038 83F82110 		strb	r1, [r3, #33]
 187:Generated_Source\PSoC5/NCO_ISR.c ****                 joints[1].tuningWord = move->tuningWord;
  76              		.loc 1 187 0
  77 003c 4168     		ldr	r1, [r0, #4]
  78 003e D961     		str	r1, [r3, #28]
 188:Generated_Source\PSoC5/NCO_ISR.c ****                 joints[1].duration = move->duration;
  79              		.loc 1 188 0
  80 0040 8268     		ldr	r2, [r0, #8]
  81 0042 9A62     		str	r2, [r3, #40]
 189:Generated_Source\PSoC5/NCO_ISR.c ****                 J2_EN_Write(0);
  82              		.loc 1 189 0
  83 0044 0020     		movs	r0, #0
  84              	.LVL4:
  85 0046 FFF7FEFF 		bl	J2_EN_Write
  86              	.LVL5:
  87              	.L2:
 164:Generated_Source\PSoC5/NCO_ISR.c ****     #ifdef NCO_ISR_INTERRUPT_INTERRUPT_CALLBACK
  88              		.loc 1 164 0 discriminator 1
  89 004a 0023     		movs	r3, #0
  90 004c 52E0     		b	.L6
  91              	.LVL6:
  92              	.L4:
 190:Generated_Source\PSoC5/NCO_ISR.c ****             break;
 191:Generated_Source\PSoC5/NCO_ISR.c ****             case 3:
 192:Generated_Source\PSoC5/NCO_ISR.c ****                 joints[2].dir = move->direction;
ARM GAS  C:\Users\pajoh\AppData\Local\Temp\ccSIQt9W.s 			page 6


  93              		.loc 1 192 0
  94 004e 4178     		ldrb	r1, [r0, #1]	@ zero_extendqisi2
  95 0050 C9B2     		uxtb	r1, r1
  96 0052 364B     		ldr	r3, .L13+4
  97 0054 83F83D10 		strb	r1, [r3, #61]
 193:Generated_Source\PSoC5/NCO_ISR.c ****                 joints[2].tuningWord = move->tuningWord;
  98              		.loc 1 193 0
  99 0058 4168     		ldr	r1, [r0, #4]
 100 005a 9963     		str	r1, [r3, #56]
 194:Generated_Source\PSoC5/NCO_ISR.c ****                 joints[2].duration = move->duration;
 101              		.loc 1 194 0
 102 005c 8268     		ldr	r2, [r0, #8]
 103 005e 5A64     		str	r2, [r3, #68]
 195:Generated_Source\PSoC5/NCO_ISR.c ****                 J3_EN_Write(0);
 104              		.loc 1 195 0
 105 0060 0020     		movs	r0, #0
 106              	.LVL7:
 107 0062 FFF7FEFF 		bl	J3_EN_Write
 108              	.LVL8:
 196:Generated_Source\PSoC5/NCO_ISR.c ****             break;
 109              		.loc 1 196 0
 110 0066 F0E7     		b	.L2
 111              	.LVL9:
 112              	.L11:
 197:Generated_Source\PSoC5/NCO_ISR.c ****             default:
 198:Generated_Source\PSoC5/NCO_ISR.c ****             break;
 199:Generated_Source\PSoC5/NCO_ISR.c ****         }
 200:Generated_Source\PSoC5/NCO_ISR.c ****     }
 201:Generated_Source\PSoC5/NCO_ISR.c ****     for(i = 0; i < NUM_JOINTS; i++){
 202:Generated_Source\PSoC5/NCO_ISR.c ****         joints[i].accumulator += joints[i].tuningWord;
 113              		.loc 1 202 0
 114 0068 3048     		ldr	r0, .L13+4
 115 006a DA00     		lsls	r2, r3, #3
 116 006c D21A     		subs	r2, r2, r3
 117 006e 9100     		lsls	r1, r2, #2
 118 0070 4218     		adds	r2, r0, r1
 119 0072 4058     		ldr	r0, [r0, r1]
 120 0074 5169     		ldr	r1, [r2, #20]
 121 0076 0144     		add	r1, r1, r0
 122 0078 5161     		str	r1, [r2, #20]
 203:Generated_Source\PSoC5/NCO_ISR.c ****         if(joints[i].step != 0){
 123              		.loc 1 203 0
 124 007a 1279     		ldrb	r2, [r2, #4]	@ zero_extendqisi2
 125 007c 12F0FF0F 		tst	r2, #255
 126 0080 06D0     		beq	.L7
 204:Generated_Source\PSoC5/NCO_ISR.c ****             joints[i].step = 0;   
 127              		.loc 1 204 0
 128 0082 C3EBC301 		rsb	r1, r3, r3, lsl #3
 129 0086 8A00     		lsls	r2, r1, #2
 130 0088 2849     		ldr	r1, .L13+4
 131 008a 0A44     		add	r2, r2, r1
 132 008c 0021     		movs	r1, #0
 133 008e 1171     		strb	r1, [r2, #4]
 134              	.L7:
 205:Generated_Source\PSoC5/NCO_ISR.c ****         }
 206:Generated_Source\PSoC5/NCO_ISR.c ****         if(joints[i].accumulator > 16777215){
 135              		.loc 1 206 0
ARM GAS  C:\Users\pajoh\AppData\Local\Temp\ccSIQt9W.s 			page 7


 136 0090 C3EBC301 		rsb	r1, r3, r3, lsl #3
 137 0094 8A00     		lsls	r2, r1, #2
 138 0096 2549     		ldr	r1, .L13+4
 139 0098 0A44     		add	r2, r2, r1
 140 009a 5269     		ldr	r2, [r2, #20]
 141 009c B2F1807F 		cmp	r2, #16777216
 142 00a0 0BD3     		bcc	.L8
 207:Generated_Source\PSoC5/NCO_ISR.c ****             joints[i].accumulator -= 16777215;
 143              		.loc 1 207 0
 144 00a2 D900     		lsls	r1, r3, #3
 145 00a4 C91A     		subs	r1, r1, r3
 146 00a6 8A00     		lsls	r2, r1, #2
 147 00a8 2049     		ldr	r1, .L13+4
 148 00aa 0A44     		add	r2, r2, r1
 149 00ac 5169     		ldr	r1, [r2, #20]
 150 00ae 01F17F41 		add	r1, r1, #-16777216
 151 00b2 0131     		adds	r1, r1, #1
 152 00b4 5161     		str	r1, [r2, #20]
 208:Generated_Source\PSoC5/NCO_ISR.c ****             joints[i].step = 1;
 153              		.loc 1 208 0
 154 00b6 0121     		movs	r1, #1
 155 00b8 1171     		strb	r1, [r2, #4]
 156              	.L8:
 209:Generated_Source\PSoC5/NCO_ISR.c ****         }
 210:Generated_Source\PSoC5/NCO_ISR.c ****         if(joints[i].duration != 0){
 157              		.loc 1 210 0
 158 00ba C3EBC301 		rsb	r1, r3, r3, lsl #3
 159 00be 8A00     		lsls	r2, r1, #2
 160 00c0 1A49     		ldr	r1, .L13+4
 161 00c2 0A44     		add	r2, r2, r1
 162 00c4 D268     		ldr	r2, [r2, #12]
 163 00c6 3AB1     		cbz	r2, .L9
 211:Generated_Source\PSoC5/NCO_ISR.c ****             joints[i].duration -= 1;   
 164              		.loc 1 211 0
 165 00c8 D900     		lsls	r1, r3, #3
 166 00ca C91A     		subs	r1, r1, r3
 167 00cc 8A00     		lsls	r2, r1, #2
 168 00ce 1749     		ldr	r1, .L13+4
 169 00d0 0A44     		add	r2, r2, r1
 170 00d2 D168     		ldr	r1, [r2, #12]
 171 00d4 0139     		subs	r1, r1, #1
 172 00d6 D160     		str	r1, [r2, #12]
 173              	.L9:
 212:Generated_Source\PSoC5/NCO_ISR.c ****         }
 213:Generated_Source\PSoC5/NCO_ISR.c ****         if(joints[i].duration == 0){
 174              		.loc 1 213 0
 175 00d8 C3EBC301 		rsb	r1, r3, r3, lsl #3
 176 00dc 8A00     		lsls	r2, r1, #2
 177 00de 1349     		ldr	r1, .L13+4
 178 00e0 0A44     		add	r2, r2, r1
 179 00e2 D268     		ldr	r2, [r2, #12]
 180 00e4 2AB9     		cbnz	r2, .L10
 214:Generated_Source\PSoC5/NCO_ISR.c ****             joints[i].tuningWord = 0;
 181              		.loc 1 214 0
 182 00e6 C3EBC301 		rsb	r1, r3, r3, lsl #3
 183 00ea 8A00     		lsls	r2, r1, #2
 184 00ec 0020     		movs	r0, #0
ARM GAS  C:\Users\pajoh\AppData\Local\Temp\ccSIQt9W.s 			page 8


 185 00ee 0F49     		ldr	r1, .L13+4
 186 00f0 8850     		str	r0, [r1, r2]
 187              	.L10:
 201:Generated_Source\PSoC5/NCO_ISR.c ****         joints[i].accumulator += joints[i].tuningWord;
 188              		.loc 1 201 0 discriminator 2
 189 00f2 0133     		adds	r3, r3, #1
 190              	.LVL10:
 191              	.L6:
 201:Generated_Source\PSoC5/NCO_ISR.c ****         joints[i].accumulator += joints[i].tuningWord;
 192              		.loc 1 201 0 is_stmt 0 discriminator 1
 193 00f4 022B     		cmp	r3, #2
 194 00f6 B7DD     		ble	.L11
 215:Generated_Source\PSoC5/NCO_ISR.c ****         }
 216:Generated_Source\PSoC5/NCO_ISR.c ****     }
 217:Generated_Source\PSoC5/NCO_ISR.c ****     //write directions and step pins
 218:Generated_Source\PSoC5/NCO_ISR.c ****     J1_DIR_Write(joints[0].dir);
 195              		.loc 1 218 0 is_stmt 1
 196 00f8 0C4C     		ldr	r4, .L13+4
 197 00fa 6079     		ldrb	r0, [r4, #5]	@ zero_extendqisi2
 198 00fc FFF7FEFF 		bl	J1_DIR_Write
 199              	.LVL11:
 219:Generated_Source\PSoC5/NCO_ISR.c ****     J2_DIR_Write(joints[1].dir);
 200              		.loc 1 219 0
 201 0100 94F82100 		ldrb	r0, [r4, #33]	@ zero_extendqisi2
 202 0104 FFF7FEFF 		bl	J2_DIR_Write
 203              	.LVL12:
 220:Generated_Source\PSoC5/NCO_ISR.c ****     J3_DIR_Write(joints[2].dir);
 204              		.loc 1 220 0
 205 0108 94F83D00 		ldrb	r0, [r4, #61]	@ zero_extendqisi2
 206 010c FFF7FEFF 		bl	J3_DIR_Write
 207              	.LVL13:
 221:Generated_Source\PSoC5/NCO_ISR.c ****     J1_STEP_Write(joints[0].step);
 208              		.loc 1 221 0
 209 0110 2079     		ldrb	r0, [r4, #4]	@ zero_extendqisi2
 210 0112 FFF7FEFF 		bl	J1_STEP_Write
 211              	.LVL14:
 222:Generated_Source\PSoC5/NCO_ISR.c ****     J2_STEP_Write(joints[1].step);
 212              		.loc 1 222 0
 213 0116 94F82000 		ldrb	r0, [r4, #32]	@ zero_extendqisi2
 214 011a FFF7FEFF 		bl	J2_STEP_Write
 215              	.LVL15:
 223:Generated_Source\PSoC5/NCO_ISR.c ****     J3_STEP_Write(joints[2].step);
 216              		.loc 1 223 0
 217 011e 94F83C00 		ldrb	r0, [r4, #60]	@ zero_extendqisi2
 218 0122 FFF7FEFF 		bl	J3_STEP_Write
 219              	.LVL16:
 220 0126 10BD     		pop	{r4, pc}
 221              	.L14:
 222              		.align	2
 223              	.L13:
 224 0128 00000000 		.word	move_queue
 225 012c 00000000 		.word	joints
 226              		.cfi_endproc
 227              	.LFE67:
 228              		.size	NCO_ISR_Interrupt, .-NCO_ISR_Interrupt
 229              		.section	.text.NCO_ISR_SetVector,"ax",%progbits
 230              		.align	2
ARM GAS  C:\Users\pajoh\AppData\Local\Temp\ccSIQt9W.s 			page 9


 231              		.global	NCO_ISR_SetVector
 232              		.thumb
 233              		.thumb_func
 234              		.type	NCO_ISR_SetVector, %function
 235              	NCO_ISR_SetVector:
 236              	.LFB68:
 224:Generated_Source\PSoC5/NCO_ISR.c ****     /* `#END` */
 225:Generated_Source\PSoC5/NCO_ISR.c **** }
 226:Generated_Source\PSoC5/NCO_ISR.c **** 
 227:Generated_Source\PSoC5/NCO_ISR.c **** 
 228:Generated_Source\PSoC5/NCO_ISR.c **** /*******************************************************************************
 229:Generated_Source\PSoC5/NCO_ISR.c **** * Function Name: NCO_ISR_SetVector
 230:Generated_Source\PSoC5/NCO_ISR.c **** ********************************************************************************
 231:Generated_Source\PSoC5/NCO_ISR.c **** *
 232:Generated_Source\PSoC5/NCO_ISR.c **** * Summary:
 233:Generated_Source\PSoC5/NCO_ISR.c **** *   Change the ISR vector for the Interrupt. Note calling NCO_ISR_Start
 234:Generated_Source\PSoC5/NCO_ISR.c **** *   will override any effect this method would have had. To set the vector 
 235:Generated_Source\PSoC5/NCO_ISR.c **** *   before the component has been started use NCO_ISR_StartEx instead.
 236:Generated_Source\PSoC5/NCO_ISR.c **** * 
 237:Generated_Source\PSoC5/NCO_ISR.c **** *   When defining ISR functions, the CY_ISR and CY_ISR_PROTO macros should be 
 238:Generated_Source\PSoC5/NCO_ISR.c **** *   used to provide consistent definition across compilers:
 239:Generated_Source\PSoC5/NCO_ISR.c **** *
 240:Generated_Source\PSoC5/NCO_ISR.c **** *   Function definition example:
 241:Generated_Source\PSoC5/NCO_ISR.c **** *   CY_ISR(MyISR)
 242:Generated_Source\PSoC5/NCO_ISR.c **** *   {
 243:Generated_Source\PSoC5/NCO_ISR.c **** *   }
 244:Generated_Source\PSoC5/NCO_ISR.c **** *
 245:Generated_Source\PSoC5/NCO_ISR.c **** *   Function prototype example:
 246:Generated_Source\PSoC5/NCO_ISR.c **** *     CY_ISR_PROTO(MyISR);
 247:Generated_Source\PSoC5/NCO_ISR.c **** *
 248:Generated_Source\PSoC5/NCO_ISR.c **** * Parameters:
 249:Generated_Source\PSoC5/NCO_ISR.c **** *   address: Address of the ISR to set in the interrupt vector table.
 250:Generated_Source\PSoC5/NCO_ISR.c **** *
 251:Generated_Source\PSoC5/NCO_ISR.c **** * Return:
 252:Generated_Source\PSoC5/NCO_ISR.c **** *   None
 253:Generated_Source\PSoC5/NCO_ISR.c **** *
 254:Generated_Source\PSoC5/NCO_ISR.c **** *******************************************************************************/
 255:Generated_Source\PSoC5/NCO_ISR.c **** void NCO_ISR_SetVector(cyisraddress address)
 256:Generated_Source\PSoC5/NCO_ISR.c **** {
 237              		.loc 1 256 0
 238              		.cfi_startproc
 239              		@ args = 0, pretend = 0, frame = 0
 240              		@ frame_needed = 0, uses_anonymous_args = 0
 241              		@ link register save eliminated.
 242              	.LVL17:
 257:Generated_Source\PSoC5/NCO_ISR.c ****     cyisraddress * ramVectorTable;
 258:Generated_Source\PSoC5/NCO_ISR.c **** 
 259:Generated_Source\PSoC5/NCO_ISR.c ****     ramVectorTable = (cyisraddress *) *CYINT_VECT_TABLE;
 243              		.loc 1 259 0
 244 0000 014B     		ldr	r3, .L16
 245 0002 1B68     		ldr	r3, [r3]
 246              	.LVL18:
 260:Generated_Source\PSoC5/NCO_ISR.c **** 
 261:Generated_Source\PSoC5/NCO_ISR.c ****     ramVectorTable[CYINT_IRQ_BASE + (uint32)NCO_ISR__INTC_NUMBER] = address;
 247              		.loc 1 261 0
 248 0004 1864     		str	r0, [r3, #64]
 249 0006 7047     		bx	lr
ARM GAS  C:\Users\pajoh\AppData\Local\Temp\ccSIQt9W.s 			page 10


 250              	.L17:
 251              		.align	2
 252              	.L16:
 253 0008 08ED00E0 		.word	-536810232
 254              		.cfi_endproc
 255              	.LFE68:
 256              		.size	NCO_ISR_SetVector, .-NCO_ISR_SetVector
 257              		.section	.text.NCO_ISR_GetVector,"ax",%progbits
 258              		.align	2
 259              		.global	NCO_ISR_GetVector
 260              		.thumb
 261              		.thumb_func
 262              		.type	NCO_ISR_GetVector, %function
 263              	NCO_ISR_GetVector:
 264              	.LFB69:
 262:Generated_Source\PSoC5/NCO_ISR.c **** }
 263:Generated_Source\PSoC5/NCO_ISR.c **** 
 264:Generated_Source\PSoC5/NCO_ISR.c **** 
 265:Generated_Source\PSoC5/NCO_ISR.c **** /*******************************************************************************
 266:Generated_Source\PSoC5/NCO_ISR.c **** * Function Name: NCO_ISR_GetVector
 267:Generated_Source\PSoC5/NCO_ISR.c **** ********************************************************************************
 268:Generated_Source\PSoC5/NCO_ISR.c **** *
 269:Generated_Source\PSoC5/NCO_ISR.c **** * Summary:
 270:Generated_Source\PSoC5/NCO_ISR.c **** *   Gets the "address" of the current ISR vector for the Interrupt.
 271:Generated_Source\PSoC5/NCO_ISR.c **** *
 272:Generated_Source\PSoC5/NCO_ISR.c **** * Parameters:
 273:Generated_Source\PSoC5/NCO_ISR.c **** *   None
 274:Generated_Source\PSoC5/NCO_ISR.c **** *
 275:Generated_Source\PSoC5/NCO_ISR.c **** * Return:
 276:Generated_Source\PSoC5/NCO_ISR.c **** *   Address of the ISR in the interrupt vector table.
 277:Generated_Source\PSoC5/NCO_ISR.c **** *
 278:Generated_Source\PSoC5/NCO_ISR.c **** *******************************************************************************/
 279:Generated_Source\PSoC5/NCO_ISR.c **** cyisraddress NCO_ISR_GetVector(void)
 280:Generated_Source\PSoC5/NCO_ISR.c **** {
 265              		.loc 1 280 0
 266              		.cfi_startproc
 267              		@ args = 0, pretend = 0, frame = 0
 268              		@ frame_needed = 0, uses_anonymous_args = 0
 269              		@ link register save eliminated.
 281:Generated_Source\PSoC5/NCO_ISR.c ****     cyisraddress * ramVectorTable;
 282:Generated_Source\PSoC5/NCO_ISR.c **** 
 283:Generated_Source\PSoC5/NCO_ISR.c ****     ramVectorTable = (cyisraddress *) *CYINT_VECT_TABLE;
 270              		.loc 1 283 0
 271 0000 014B     		ldr	r3, .L19
 272 0002 1B68     		ldr	r3, [r3]
 273              	.LVL19:
 284:Generated_Source\PSoC5/NCO_ISR.c **** 
 285:Generated_Source\PSoC5/NCO_ISR.c ****     return ramVectorTable[CYINT_IRQ_BASE + (uint32)NCO_ISR__INTC_NUMBER];
 286:Generated_Source\PSoC5/NCO_ISR.c **** }
 274              		.loc 1 286 0
 275 0004 186C     		ldr	r0, [r3, #64]
 276 0006 7047     		bx	lr
 277              	.L20:
 278              		.align	2
 279              	.L19:
 280 0008 08ED00E0 		.word	-536810232
 281              		.cfi_endproc
ARM GAS  C:\Users\pajoh\AppData\Local\Temp\ccSIQt9W.s 			page 11


 282              	.LFE69:
 283              		.size	NCO_ISR_GetVector, .-NCO_ISR_GetVector
 284              		.section	.text.NCO_ISR_SetPriority,"ax",%progbits
 285              		.align	2
 286              		.global	NCO_ISR_SetPriority
 287              		.thumb
 288              		.thumb_func
 289              		.type	NCO_ISR_SetPriority, %function
 290              	NCO_ISR_SetPriority:
 291              	.LFB70:
 287:Generated_Source\PSoC5/NCO_ISR.c **** 
 288:Generated_Source\PSoC5/NCO_ISR.c **** 
 289:Generated_Source\PSoC5/NCO_ISR.c **** /*******************************************************************************
 290:Generated_Source\PSoC5/NCO_ISR.c **** * Function Name: NCO_ISR_SetPriority
 291:Generated_Source\PSoC5/NCO_ISR.c **** ********************************************************************************
 292:Generated_Source\PSoC5/NCO_ISR.c **** *
 293:Generated_Source\PSoC5/NCO_ISR.c **** * Summary:
 294:Generated_Source\PSoC5/NCO_ISR.c **** *   Sets the Priority of the Interrupt. 
 295:Generated_Source\PSoC5/NCO_ISR.c **** *
 296:Generated_Source\PSoC5/NCO_ISR.c **** *   Note calling NCO_ISR_Start or NCO_ISR_StartEx will 
 297:Generated_Source\PSoC5/NCO_ISR.c **** *   override any effect this API would have had. This API should only be called
 298:Generated_Source\PSoC5/NCO_ISR.c **** *   after NCO_ISR_Start or NCO_ISR_StartEx has been called. 
 299:Generated_Source\PSoC5/NCO_ISR.c **** *   To set the initial priority for the component, use the Design-Wide Resources
 300:Generated_Source\PSoC5/NCO_ISR.c **** *   Interrupt Editor.
 301:Generated_Source\PSoC5/NCO_ISR.c **** *
 302:Generated_Source\PSoC5/NCO_ISR.c **** *   Note This API has no effect on Non-maskable interrupt NMI).
 303:Generated_Source\PSoC5/NCO_ISR.c **** *
 304:Generated_Source\PSoC5/NCO_ISR.c **** * Parameters:
 305:Generated_Source\PSoC5/NCO_ISR.c **** *   priority: Priority of the interrupt, 0 being the highest priority
 306:Generated_Source\PSoC5/NCO_ISR.c **** *             PSoC 3 and PSoC 5LP: Priority is from 0 to 7.
 307:Generated_Source\PSoC5/NCO_ISR.c **** *             PSoC 4: Priority is from 0 to 3.
 308:Generated_Source\PSoC5/NCO_ISR.c **** *
 309:Generated_Source\PSoC5/NCO_ISR.c **** * Return:
 310:Generated_Source\PSoC5/NCO_ISR.c **** *   None
 311:Generated_Source\PSoC5/NCO_ISR.c **** *
 312:Generated_Source\PSoC5/NCO_ISR.c **** *******************************************************************************/
 313:Generated_Source\PSoC5/NCO_ISR.c **** void NCO_ISR_SetPriority(uint8 priority)
 314:Generated_Source\PSoC5/NCO_ISR.c **** {
 292              		.loc 1 314 0
 293              		.cfi_startproc
 294              		@ args = 0, pretend = 0, frame = 0
 295              		@ frame_needed = 0, uses_anonymous_args = 0
 296              		@ link register save eliminated.
 297              	.LVL20:
 315:Generated_Source\PSoC5/NCO_ISR.c ****     *NCO_ISR_INTC_PRIOR = priority << 5;
 298              		.loc 1 315 0
 299 0000 4001     		lsls	r0, r0, #5
 300              	.LVL21:
 301 0002 C0B2     		uxtb	r0, r0
 302 0004 014B     		ldr	r3, .L22
 303 0006 1870     		strb	r0, [r3]
 304 0008 7047     		bx	lr
 305              	.L23:
 306 000a 00BF     		.align	2
 307              	.L22:
 308 000c 00E400E0 		.word	-536812544
 309              		.cfi_endproc
ARM GAS  C:\Users\pajoh\AppData\Local\Temp\ccSIQt9W.s 			page 12


 310              	.LFE70:
 311              		.size	NCO_ISR_SetPriority, .-NCO_ISR_SetPriority
 312              		.section	.text.NCO_ISR_GetPriority,"ax",%progbits
 313              		.align	2
 314              		.global	NCO_ISR_GetPriority
 315              		.thumb
 316              		.thumb_func
 317              		.type	NCO_ISR_GetPriority, %function
 318              	NCO_ISR_GetPriority:
 319              	.LFB71:
 316:Generated_Source\PSoC5/NCO_ISR.c **** }
 317:Generated_Source\PSoC5/NCO_ISR.c **** 
 318:Generated_Source\PSoC5/NCO_ISR.c **** 
 319:Generated_Source\PSoC5/NCO_ISR.c **** /*******************************************************************************
 320:Generated_Source\PSoC5/NCO_ISR.c **** * Function Name: NCO_ISR_GetPriority
 321:Generated_Source\PSoC5/NCO_ISR.c **** ********************************************************************************
 322:Generated_Source\PSoC5/NCO_ISR.c **** *
 323:Generated_Source\PSoC5/NCO_ISR.c **** * Summary:
 324:Generated_Source\PSoC5/NCO_ISR.c **** *   Gets the Priority of the Interrupt.
 325:Generated_Source\PSoC5/NCO_ISR.c **** *
 326:Generated_Source\PSoC5/NCO_ISR.c **** * Parameters:
 327:Generated_Source\PSoC5/NCO_ISR.c **** *   None
 328:Generated_Source\PSoC5/NCO_ISR.c **** *
 329:Generated_Source\PSoC5/NCO_ISR.c **** * Return:
 330:Generated_Source\PSoC5/NCO_ISR.c **** *   Priority of the interrupt, 0 being the highest priority
 331:Generated_Source\PSoC5/NCO_ISR.c **** *    PSoC 3 and PSoC 5LP: Priority is from 0 to 7.
 332:Generated_Source\PSoC5/NCO_ISR.c **** *    PSoC 4: Priority is from 0 to 3.
 333:Generated_Source\PSoC5/NCO_ISR.c **** *
 334:Generated_Source\PSoC5/NCO_ISR.c **** *******************************************************************************/
 335:Generated_Source\PSoC5/NCO_ISR.c **** uint8 NCO_ISR_GetPriority(void)
 336:Generated_Source\PSoC5/NCO_ISR.c **** {
 320              		.loc 1 336 0
 321              		.cfi_startproc
 322              		@ args = 0, pretend = 0, frame = 0
 323              		@ frame_needed = 0, uses_anonymous_args = 0
 324              		@ link register save eliminated.
 337:Generated_Source\PSoC5/NCO_ISR.c ****     uint8 priority;
 338:Generated_Source\PSoC5/NCO_ISR.c **** 
 339:Generated_Source\PSoC5/NCO_ISR.c **** 
 340:Generated_Source\PSoC5/NCO_ISR.c ****     priority = *NCO_ISR_INTC_PRIOR >> 5;
 325              		.loc 1 340 0
 326 0000 014B     		ldr	r3, .L25
 327 0002 1878     		ldrb	r0, [r3]	@ zero_extendqisi2
 328              	.LVL22:
 341:Generated_Source\PSoC5/NCO_ISR.c **** 
 342:Generated_Source\PSoC5/NCO_ISR.c ****     return priority;
 343:Generated_Source\PSoC5/NCO_ISR.c **** }
 329              		.loc 1 343 0
 330 0004 4009     		lsrs	r0, r0, #5
 331              	.LVL23:
 332 0006 7047     		bx	lr
 333              	.L26:
 334              		.align	2
 335              	.L25:
 336 0008 00E400E0 		.word	-536812544
 337              		.cfi_endproc
 338              	.LFE71:
ARM GAS  C:\Users\pajoh\AppData\Local\Temp\ccSIQt9W.s 			page 13


 339              		.size	NCO_ISR_GetPriority, .-NCO_ISR_GetPriority
 340              		.section	.text.NCO_ISR_Enable,"ax",%progbits
 341              		.align	2
 342              		.global	NCO_ISR_Enable
 343              		.thumb
 344              		.thumb_func
 345              		.type	NCO_ISR_Enable, %function
 346              	NCO_ISR_Enable:
 347              	.LFB72:
 344:Generated_Source\PSoC5/NCO_ISR.c **** 
 345:Generated_Source\PSoC5/NCO_ISR.c **** 
 346:Generated_Source\PSoC5/NCO_ISR.c **** /*******************************************************************************
 347:Generated_Source\PSoC5/NCO_ISR.c **** * Function Name: NCO_ISR_Enable
 348:Generated_Source\PSoC5/NCO_ISR.c **** ********************************************************************************
 349:Generated_Source\PSoC5/NCO_ISR.c **** *
 350:Generated_Source\PSoC5/NCO_ISR.c **** * Summary:
 351:Generated_Source\PSoC5/NCO_ISR.c **** *   Enables the interrupt to the interrupt controller. Do not call this function
 352:Generated_Source\PSoC5/NCO_ISR.c **** *   unless ISR_Start() has been called or the functionality of the ISR_Start() 
 353:Generated_Source\PSoC5/NCO_ISR.c **** *   function, which sets the vector and the priority, has been called.
 354:Generated_Source\PSoC5/NCO_ISR.c **** *
 355:Generated_Source\PSoC5/NCO_ISR.c **** * Parameters:
 356:Generated_Source\PSoC5/NCO_ISR.c **** *   None
 357:Generated_Source\PSoC5/NCO_ISR.c **** *
 358:Generated_Source\PSoC5/NCO_ISR.c **** * Return:
 359:Generated_Source\PSoC5/NCO_ISR.c **** *   None
 360:Generated_Source\PSoC5/NCO_ISR.c **** *
 361:Generated_Source\PSoC5/NCO_ISR.c **** *******************************************************************************/
 362:Generated_Source\PSoC5/NCO_ISR.c **** void NCO_ISR_Enable(void)
 363:Generated_Source\PSoC5/NCO_ISR.c **** {
 348              		.loc 1 363 0
 349              		.cfi_startproc
 350              		@ args = 0, pretend = 0, frame = 0
 351              		@ frame_needed = 0, uses_anonymous_args = 0
 352              		@ link register save eliminated.
 364:Generated_Source\PSoC5/NCO_ISR.c ****     /* Enable the general interrupt. */
 365:Generated_Source\PSoC5/NCO_ISR.c ****     *NCO_ISR_INTC_SET_EN = NCO_ISR__INTC_MASK;
 353              		.loc 1 365 0
 354 0000 0122     		movs	r2, #1
 355 0002 014B     		ldr	r3, .L28
 356 0004 1A60     		str	r2, [r3]
 357 0006 7047     		bx	lr
 358              	.L29:
 359              		.align	2
 360              	.L28:
 361 0008 00E100E0 		.word	-536813312
 362              		.cfi_endproc
 363              	.LFE72:
 364              		.size	NCO_ISR_Enable, .-NCO_ISR_Enable
 365              		.section	.text.NCO_ISR_GetState,"ax",%progbits
 366              		.align	2
 367              		.global	NCO_ISR_GetState
 368              		.thumb
 369              		.thumb_func
 370              		.type	NCO_ISR_GetState, %function
 371              	NCO_ISR_GetState:
 372              	.LFB73:
 366:Generated_Source\PSoC5/NCO_ISR.c **** }
ARM GAS  C:\Users\pajoh\AppData\Local\Temp\ccSIQt9W.s 			page 14


 367:Generated_Source\PSoC5/NCO_ISR.c **** 
 368:Generated_Source\PSoC5/NCO_ISR.c **** 
 369:Generated_Source\PSoC5/NCO_ISR.c **** /*******************************************************************************
 370:Generated_Source\PSoC5/NCO_ISR.c **** * Function Name: NCO_ISR_GetState
 371:Generated_Source\PSoC5/NCO_ISR.c **** ********************************************************************************
 372:Generated_Source\PSoC5/NCO_ISR.c **** *
 373:Generated_Source\PSoC5/NCO_ISR.c **** * Summary:
 374:Generated_Source\PSoC5/NCO_ISR.c **** *   Gets the state (enabled, disabled) of the Interrupt.
 375:Generated_Source\PSoC5/NCO_ISR.c **** *
 376:Generated_Source\PSoC5/NCO_ISR.c **** * Parameters:
 377:Generated_Source\PSoC5/NCO_ISR.c **** *   None
 378:Generated_Source\PSoC5/NCO_ISR.c **** *
 379:Generated_Source\PSoC5/NCO_ISR.c **** * Return:
 380:Generated_Source\PSoC5/NCO_ISR.c **** *   1 if enabled, 0 if disabled.
 381:Generated_Source\PSoC5/NCO_ISR.c **** *
 382:Generated_Source\PSoC5/NCO_ISR.c **** *******************************************************************************/
 383:Generated_Source\PSoC5/NCO_ISR.c **** uint8 NCO_ISR_GetState(void)
 384:Generated_Source\PSoC5/NCO_ISR.c **** {
 373              		.loc 1 384 0
 374              		.cfi_startproc
 375              		@ args = 0, pretend = 0, frame = 0
 376              		@ frame_needed = 0, uses_anonymous_args = 0
 377              		@ link register save eliminated.
 385:Generated_Source\PSoC5/NCO_ISR.c ****     /* Get the state of the general interrupt. */
 386:Generated_Source\PSoC5/NCO_ISR.c ****     return ((*NCO_ISR_INTC_SET_EN & (uint32)NCO_ISR__INTC_MASK) != 0u) ? 1u:0u;
 378              		.loc 1 386 0
 379 0000 024B     		ldr	r3, .L31
 380 0002 1868     		ldr	r0, [r3]
 387:Generated_Source\PSoC5/NCO_ISR.c **** }
 381              		.loc 1 387 0
 382 0004 00F00100 		and	r0, r0, #1
 383 0008 7047     		bx	lr
 384              	.L32:
 385 000a 00BF     		.align	2
 386              	.L31:
 387 000c 00E100E0 		.word	-536813312
 388              		.cfi_endproc
 389              	.LFE73:
 390              		.size	NCO_ISR_GetState, .-NCO_ISR_GetState
 391              		.section	.text.NCO_ISR_Disable,"ax",%progbits
 392              		.align	2
 393              		.global	NCO_ISR_Disable
 394              		.thumb
 395              		.thumb_func
 396              		.type	NCO_ISR_Disable, %function
 397              	NCO_ISR_Disable:
 398              	.LFB74:
 388:Generated_Source\PSoC5/NCO_ISR.c **** 
 389:Generated_Source\PSoC5/NCO_ISR.c **** 
 390:Generated_Source\PSoC5/NCO_ISR.c **** /*******************************************************************************
 391:Generated_Source\PSoC5/NCO_ISR.c **** * Function Name: NCO_ISR_Disable
 392:Generated_Source\PSoC5/NCO_ISR.c **** ********************************************************************************
 393:Generated_Source\PSoC5/NCO_ISR.c **** *
 394:Generated_Source\PSoC5/NCO_ISR.c **** * Summary:
 395:Generated_Source\PSoC5/NCO_ISR.c **** *   Disables the Interrupt in the interrupt controller.
 396:Generated_Source\PSoC5/NCO_ISR.c **** *
 397:Generated_Source\PSoC5/NCO_ISR.c **** * Parameters:
ARM GAS  C:\Users\pajoh\AppData\Local\Temp\ccSIQt9W.s 			page 15


 398:Generated_Source\PSoC5/NCO_ISR.c **** *   None
 399:Generated_Source\PSoC5/NCO_ISR.c **** *
 400:Generated_Source\PSoC5/NCO_ISR.c **** * Return:
 401:Generated_Source\PSoC5/NCO_ISR.c **** *   None
 402:Generated_Source\PSoC5/NCO_ISR.c **** *
 403:Generated_Source\PSoC5/NCO_ISR.c **** *******************************************************************************/
 404:Generated_Source\PSoC5/NCO_ISR.c **** void NCO_ISR_Disable(void)
 405:Generated_Source\PSoC5/NCO_ISR.c **** {
 399              		.loc 1 405 0
 400              		.cfi_startproc
 401              		@ args = 0, pretend = 0, frame = 0
 402              		@ frame_needed = 0, uses_anonymous_args = 0
 403              		@ link register save eliminated.
 406:Generated_Source\PSoC5/NCO_ISR.c ****     /* Disable the general interrupt. */
 407:Generated_Source\PSoC5/NCO_ISR.c ****     *NCO_ISR_INTC_CLR_EN = NCO_ISR__INTC_MASK;
 404              		.loc 1 407 0
 405 0000 0122     		movs	r2, #1
 406 0002 014B     		ldr	r3, .L34
 407 0004 1A60     		str	r2, [r3]
 408 0006 7047     		bx	lr
 409              	.L35:
 410              		.align	2
 411              	.L34:
 412 0008 80E100E0 		.word	-536813184
 413              		.cfi_endproc
 414              	.LFE74:
 415              		.size	NCO_ISR_Disable, .-NCO_ISR_Disable
 416              		.section	.text.NCO_ISR_Start,"ax",%progbits
 417              		.align	2
 418              		.global	NCO_ISR_Start
 419              		.thumb
 420              		.thumb_func
 421              		.type	NCO_ISR_Start, %function
 422              	NCO_ISR_Start:
 423              	.LFB64:
  65:Generated_Source\PSoC5/NCO_ISR.c ****     /* For all we know the interrupt is active. */
 424              		.loc 1 65 0
 425              		.cfi_startproc
 426              		@ args = 0, pretend = 0, frame = 0
 427              		@ frame_needed = 0, uses_anonymous_args = 0
 428 0000 08B5     		push	{r3, lr}
 429              		.cfi_def_cfa_offset 8
 430              		.cfi_offset 3, -8
 431              		.cfi_offset 14, -4
  67:Generated_Source\PSoC5/NCO_ISR.c **** 
 432              		.loc 1 67 0
 433 0002 FFF7FEFF 		bl	NCO_ISR_Disable
 434              	.LVL24:
  70:Generated_Source\PSoC5/NCO_ISR.c **** 
 435              		.loc 1 70 0
 436 0006 0448     		ldr	r0, .L38
 437 0008 FFF7FEFF 		bl	NCO_ISR_SetVector
 438              	.LVL25:
  73:Generated_Source\PSoC5/NCO_ISR.c **** 
 439              		.loc 1 73 0
 440 000c 0420     		movs	r0, #4
 441 000e FFF7FEFF 		bl	NCO_ISR_SetPriority
ARM GAS  C:\Users\pajoh\AppData\Local\Temp\ccSIQt9W.s 			page 16


 442              	.LVL26:
  76:Generated_Source\PSoC5/NCO_ISR.c **** }
 443              		.loc 1 76 0
 444 0012 FFF7FEFF 		bl	NCO_ISR_Enable
 445              	.LVL27:
 446 0016 08BD     		pop	{r3, pc}
 447              	.L39:
 448              		.align	2
 449              	.L38:
 450 0018 00000000 		.word	NCO_ISR_Interrupt
 451              		.cfi_endproc
 452              	.LFE64:
 453              		.size	NCO_ISR_Start, .-NCO_ISR_Start
 454              		.section	.text.NCO_ISR_StartEx,"ax",%progbits
 455              		.align	2
 456              		.global	NCO_ISR_StartEx
 457              		.thumb
 458              		.thumb_func
 459              		.type	NCO_ISR_StartEx, %function
 460              	NCO_ISR_StartEx:
 461              	.LFB65:
 108:Generated_Source\PSoC5/NCO_ISR.c ****     /* For all we know the interrupt is active. */
 462              		.loc 1 108 0
 463              		.cfi_startproc
 464              		@ args = 0, pretend = 0, frame = 0
 465              		@ frame_needed = 0, uses_anonymous_args = 0
 466              	.LVL28:
 467 0000 10B5     		push	{r4, lr}
 468              		.cfi_def_cfa_offset 8
 469              		.cfi_offset 4, -8
 470              		.cfi_offset 14, -4
 471 0002 0446     		mov	r4, r0
 110:Generated_Source\PSoC5/NCO_ISR.c **** 
 472              		.loc 1 110 0
 473 0004 FFF7FEFF 		bl	NCO_ISR_Disable
 474              	.LVL29:
 113:Generated_Source\PSoC5/NCO_ISR.c **** 
 475              		.loc 1 113 0
 476 0008 2046     		mov	r0, r4
 477 000a FFF7FEFF 		bl	NCO_ISR_SetVector
 478              	.LVL30:
 116:Generated_Source\PSoC5/NCO_ISR.c **** 
 479              		.loc 1 116 0
 480 000e 0420     		movs	r0, #4
 481 0010 FFF7FEFF 		bl	NCO_ISR_SetPriority
 482              	.LVL31:
 119:Generated_Source\PSoC5/NCO_ISR.c **** }
 483              		.loc 1 119 0
 484 0014 FFF7FEFF 		bl	NCO_ISR_Enable
 485              	.LVL32:
 486 0018 10BD     		pop	{r4, pc}
 487              		.cfi_endproc
 488              	.LFE65:
 489              		.size	NCO_ISR_StartEx, .-NCO_ISR_StartEx
 490 001a 00BF     		.section	.text.NCO_ISR_Stop,"ax",%progbits
 491              		.align	2
 492              		.global	NCO_ISR_Stop
ARM GAS  C:\Users\pajoh\AppData\Local\Temp\ccSIQt9W.s 			page 17


 493              		.thumb
 494              		.thumb_func
 495              		.type	NCO_ISR_Stop, %function
 496              	NCO_ISR_Stop:
 497              	.LFB66:
 138:Generated_Source\PSoC5/NCO_ISR.c ****     /* Disable this interrupt. */
 498              		.loc 1 138 0
 499              		.cfi_startproc
 500              		@ args = 0, pretend = 0, frame = 0
 501              		@ frame_needed = 0, uses_anonymous_args = 0
 502 0000 08B5     		push	{r3, lr}
 503              		.cfi_def_cfa_offset 8
 504              		.cfi_offset 3, -8
 505              		.cfi_offset 14, -4
 140:Generated_Source\PSoC5/NCO_ISR.c **** 
 506              		.loc 1 140 0
 507 0002 FFF7FEFF 		bl	NCO_ISR_Disable
 508              	.LVL33:
 143:Generated_Source\PSoC5/NCO_ISR.c **** }
 509              		.loc 1 143 0
 510 0006 0248     		ldr	r0, .L44
 511 0008 FFF7FEFF 		bl	NCO_ISR_SetVector
 512              	.LVL34:
 513 000c 08BD     		pop	{r3, pc}
 514              	.L45:
 515 000e 00BF     		.align	2
 516              	.L44:
 517 0010 00000000 		.word	IntDefaultHandler
 518              		.cfi_endproc
 519              	.LFE66:
 520              		.size	NCO_ISR_Stop, .-NCO_ISR_Stop
 521              		.section	.text.NCO_ISR_SetPending,"ax",%progbits
 522              		.align	2
 523              		.global	NCO_ISR_SetPending
 524              		.thumb
 525              		.thumb_func
 526              		.type	NCO_ISR_SetPending, %function
 527              	NCO_ISR_SetPending:
 528              	.LFB75:
 408:Generated_Source\PSoC5/NCO_ISR.c **** }
 409:Generated_Source\PSoC5/NCO_ISR.c **** 
 410:Generated_Source\PSoC5/NCO_ISR.c **** 
 411:Generated_Source\PSoC5/NCO_ISR.c **** /*******************************************************************************
 412:Generated_Source\PSoC5/NCO_ISR.c **** * Function Name: NCO_ISR_SetPending
 413:Generated_Source\PSoC5/NCO_ISR.c **** ********************************************************************************
 414:Generated_Source\PSoC5/NCO_ISR.c **** *
 415:Generated_Source\PSoC5/NCO_ISR.c **** * Summary:
 416:Generated_Source\PSoC5/NCO_ISR.c **** *   Causes the Interrupt to enter the pending state, a software method of
 417:Generated_Source\PSoC5/NCO_ISR.c **** *   generating the interrupt.
 418:Generated_Source\PSoC5/NCO_ISR.c **** *
 419:Generated_Source\PSoC5/NCO_ISR.c **** * Parameters:
 420:Generated_Source\PSoC5/NCO_ISR.c **** *   None
 421:Generated_Source\PSoC5/NCO_ISR.c **** *
 422:Generated_Source\PSoC5/NCO_ISR.c **** * Return:
 423:Generated_Source\PSoC5/NCO_ISR.c **** *   None
 424:Generated_Source\PSoC5/NCO_ISR.c **** *
 425:Generated_Source\PSoC5/NCO_ISR.c **** * Side Effects:
ARM GAS  C:\Users\pajoh\AppData\Local\Temp\ccSIQt9W.s 			page 18


 426:Generated_Source\PSoC5/NCO_ISR.c **** *   If interrupts are enabled and the interrupt is set up properly, the ISR is
 427:Generated_Source\PSoC5/NCO_ISR.c **** *   entered (depending on the priority of this interrupt and other pending 
 428:Generated_Source\PSoC5/NCO_ISR.c **** *   interrupts).
 429:Generated_Source\PSoC5/NCO_ISR.c **** *
 430:Generated_Source\PSoC5/NCO_ISR.c **** *******************************************************************************/
 431:Generated_Source\PSoC5/NCO_ISR.c **** void NCO_ISR_SetPending(void)
 432:Generated_Source\PSoC5/NCO_ISR.c **** {
 529              		.loc 1 432 0
 530              		.cfi_startproc
 531              		@ args = 0, pretend = 0, frame = 0
 532              		@ frame_needed = 0, uses_anonymous_args = 0
 533              		@ link register save eliminated.
 433:Generated_Source\PSoC5/NCO_ISR.c ****     *NCO_ISR_INTC_SET_PD = NCO_ISR__INTC_MASK;
 534              		.loc 1 433 0
 535 0000 0122     		movs	r2, #1
 536 0002 014B     		ldr	r3, .L47
 537 0004 1A60     		str	r2, [r3]
 538 0006 7047     		bx	lr
 539              	.L48:
 540              		.align	2
 541              	.L47:
 542 0008 00E200E0 		.word	-536813056
 543              		.cfi_endproc
 544              	.LFE75:
 545              		.size	NCO_ISR_SetPending, .-NCO_ISR_SetPending
 546              		.section	.text.NCO_ISR_ClearPending,"ax",%progbits
 547              		.align	2
 548              		.global	NCO_ISR_ClearPending
 549              		.thumb
 550              		.thumb_func
 551              		.type	NCO_ISR_ClearPending, %function
 552              	NCO_ISR_ClearPending:
 553              	.LFB76:
 434:Generated_Source\PSoC5/NCO_ISR.c **** }
 435:Generated_Source\PSoC5/NCO_ISR.c **** 
 436:Generated_Source\PSoC5/NCO_ISR.c **** 
 437:Generated_Source\PSoC5/NCO_ISR.c **** /*******************************************************************************
 438:Generated_Source\PSoC5/NCO_ISR.c **** * Function Name: NCO_ISR_ClearPending
 439:Generated_Source\PSoC5/NCO_ISR.c **** ********************************************************************************
 440:Generated_Source\PSoC5/NCO_ISR.c **** *
 441:Generated_Source\PSoC5/NCO_ISR.c **** * Summary:
 442:Generated_Source\PSoC5/NCO_ISR.c **** *   Clears a pending interrupt in the interrupt controller.
 443:Generated_Source\PSoC5/NCO_ISR.c **** *
 444:Generated_Source\PSoC5/NCO_ISR.c **** *   Note Some interrupt sources are clear-on-read and require the block 
 445:Generated_Source\PSoC5/NCO_ISR.c **** *   interrupt/status register to be read/cleared with the appropriate block API 
 446:Generated_Source\PSoC5/NCO_ISR.c **** *   (GPIO, UART, and so on). Otherwise the ISR will continue to remain in 
 447:Generated_Source\PSoC5/NCO_ISR.c **** *   pending state even though the interrupt itself is cleared using this API.
 448:Generated_Source\PSoC5/NCO_ISR.c **** *
 449:Generated_Source\PSoC5/NCO_ISR.c **** * Parameters:
 450:Generated_Source\PSoC5/NCO_ISR.c **** *   None
 451:Generated_Source\PSoC5/NCO_ISR.c **** *
 452:Generated_Source\PSoC5/NCO_ISR.c **** * Return:
 453:Generated_Source\PSoC5/NCO_ISR.c **** *   None
 454:Generated_Source\PSoC5/NCO_ISR.c **** *
 455:Generated_Source\PSoC5/NCO_ISR.c **** *******************************************************************************/
 456:Generated_Source\PSoC5/NCO_ISR.c **** void NCO_ISR_ClearPending(void)
 457:Generated_Source\PSoC5/NCO_ISR.c **** {
ARM GAS  C:\Users\pajoh\AppData\Local\Temp\ccSIQt9W.s 			page 19


 554              		.loc 1 457 0
 555              		.cfi_startproc
 556              		@ args = 0, pretend = 0, frame = 0
 557              		@ frame_needed = 0, uses_anonymous_args = 0
 558              		@ link register save eliminated.
 458:Generated_Source\PSoC5/NCO_ISR.c ****     *NCO_ISR_INTC_CLR_PD = NCO_ISR__INTC_MASK;
 559              		.loc 1 458 0
 560 0000 0122     		movs	r2, #1
 561 0002 014B     		ldr	r3, .L50
 562 0004 1A60     		str	r2, [r3]
 563 0006 7047     		bx	lr
 564              	.L51:
 565              		.align	2
 566              	.L50:
 567 0008 80E200E0 		.word	-536812928
 568              		.cfi_endproc
 569              	.LFE76:
 570              		.size	NCO_ISR_ClearPending, .-NCO_ISR_ClearPending
 571              		.comm	joints,84,4
 572              		.comm	J1_home,4,4
 573              		.comm	read_angle_command,2,2
 574              		.comm	rx_index,4,4
 575              		.comm	rx_buffer,80,4
 576              		.comm	move_queue,1208,4
 577              		.comm	msg_buff,2006,4
 578              		.text
 579              	.Letext0:
 580              		.file 2 "c:\\program files (x86)\\cypress\\psoc creator\\4.2\\psoc creator\\import\\gnu\\arm\\5.4.
 581              		.file 3 "c:\\program files (x86)\\cypress\\psoc creator\\4.2\\psoc creator\\import\\gnu\\arm\\5.4.
 582              		.file 4 "Generated_Source\\PSoC5/cytypes.h"
 583              		.file 5 "./comms.h"
 584              		.file 6 "./joints.h"
 585              		.file 7 "Generated_Source\\PSoC5/core_cm3.h"
 586              		.file 8 "./as5048.h"
 587              		.file 9 "Generated_Source\\PSoC5\\J1_EN.h"
 588              		.file 10 "Generated_Source\\PSoC5\\J2_EN.h"
 589              		.file 11 "Generated_Source\\PSoC5\\J3_EN.h"
 590              		.file 12 "Generated_Source\\PSoC5\\J1_DIR.h"
 591              		.file 13 "Generated_Source\\PSoC5\\J2_DIR.h"
 592              		.file 14 "Generated_Source\\PSoC5\\J3_DIR.h"
 593              		.file 15 "Generated_Source\\PSoC5\\J1_STEP.h"
 594              		.file 16 "Generated_Source\\PSoC5\\J2_STEP.h"
 595              		.file 17 "Generated_Source\\PSoC5\\J3_STEP.h"