ARM GAS  C:\Users\pajoh\AppData\Local\Temp\ccHwFZfN.s 			page 1


   1              		.syntax unified
   2              		.cpu cortex-m3
   3              		.fpu softvfp
   4              		.eabi_attribute 20, 1
   5              		.eabi_attribute 21, 1
   6              		.eabi_attribute 23, 3
   7              		.eabi_attribute 24, 1
   8              		.eabi_attribute 25, 1
   9              		.eabi_attribute 26, 1
  10              		.eabi_attribute 30, 1
  11              		.eabi_attribute 34, 1
  12              		.eabi_attribute 18, 4
  13              		.thumb
  14              		.syntax unified
  15              		.file	"rx_isr.c"
  16              		.text
  17              	.Ltext0:
  18              		.cfi_sections	.debug_frame
  19              		.section	.text.rx_isr_Interrupt,"ax",%progbits
  20              		.align	2
  21              		.global	rx_isr_Interrupt
  22              		.thumb
  23              		.thumb_func
  24              		.type	rx_isr_Interrupt, %function
  25              	rx_isr_Interrupt:
  26              	.LFB67:
  27              		.file 1 "Generated_Source\\PSoC5\\rx_isr.c"
   1:Generated_Source\PSoC5/rx_isr.c **** /*******************************************************************************
   2:Generated_Source\PSoC5/rx_isr.c **** * File Name: rx_isr.c  
   3:Generated_Source\PSoC5/rx_isr.c **** * Version 1.70
   4:Generated_Source\PSoC5/rx_isr.c **** *
   5:Generated_Source\PSoC5/rx_isr.c **** *  Description:
   6:Generated_Source\PSoC5/rx_isr.c **** *   API for controlling the state of an interrupt.
   7:Generated_Source\PSoC5/rx_isr.c **** *
   8:Generated_Source\PSoC5/rx_isr.c **** *
   9:Generated_Source\PSoC5/rx_isr.c **** *  Note:
  10:Generated_Source\PSoC5/rx_isr.c **** *
  11:Generated_Source\PSoC5/rx_isr.c **** ********************************************************************************
  12:Generated_Source\PSoC5/rx_isr.c **** * Copyright 2008-2015, Cypress Semiconductor Corporation.  All rights reserved.
  13:Generated_Source\PSoC5/rx_isr.c **** * You may use this file only in accordance with the license, terms, conditions, 
  14:Generated_Source\PSoC5/rx_isr.c **** * disclaimers, and limitations in the end user license agreement accompanying 
  15:Generated_Source\PSoC5/rx_isr.c **** * the software package with which this file was provided.
  16:Generated_Source\PSoC5/rx_isr.c **** *******************************************************************************/
  17:Generated_Source\PSoC5/rx_isr.c **** 
  18:Generated_Source\PSoC5/rx_isr.c **** 
  19:Generated_Source\PSoC5/rx_isr.c **** #include <cydevice_trm.h>
  20:Generated_Source\PSoC5/rx_isr.c **** #include <CyLib.h>
  21:Generated_Source\PSoC5/rx_isr.c **** #include <rx_isr.h>
  22:Generated_Source\PSoC5/rx_isr.c **** #include "cyapicallbacks.h"
  23:Generated_Source\PSoC5/rx_isr.c **** 
  24:Generated_Source\PSoC5/rx_isr.c **** #if !defined(rx_isr__REMOVED) /* Check for removal by optimization */
  25:Generated_Source\PSoC5/rx_isr.c **** 
  26:Generated_Source\PSoC5/rx_isr.c **** /*******************************************************************************
  27:Generated_Source\PSoC5/rx_isr.c **** *  Place your includes, defines and code here 
  28:Generated_Source\PSoC5/rx_isr.c **** ********************************************************************************/
  29:Generated_Source\PSoC5/rx_isr.c **** /* `#START rx_isr_intc` */
  30:Generated_Source\PSoC5/rx_isr.c **** #define RX_SIZE 80
ARM GAS  C:\Users\pajoh\AppData\Local\Temp\ccHwFZfN.s 			page 2


  31:Generated_Source\PSoC5/rx_isr.c **** #include "comms.h"
  32:Generated_Source\PSoC5/rx_isr.c **** #include "project.h"
  33:Generated_Source\PSoC5/rx_isr.c **** #include "stdio.h"
  34:Generated_Source\PSoC5/rx_isr.c **** /* `#END` */
  35:Generated_Source\PSoC5/rx_isr.c **** 
  36:Generated_Source\PSoC5/rx_isr.c **** #ifndef CYINT_IRQ_BASE
  37:Generated_Source\PSoC5/rx_isr.c **** #define CYINT_IRQ_BASE      16
  38:Generated_Source\PSoC5/rx_isr.c **** #endif /* CYINT_IRQ_BASE */
  39:Generated_Source\PSoC5/rx_isr.c **** #ifndef CYINT_VECT_TABLE
  40:Generated_Source\PSoC5/rx_isr.c **** #define CYINT_VECT_TABLE    ((cyisraddress **) CYREG_NVIC_VECT_OFFSET)
  41:Generated_Source\PSoC5/rx_isr.c **** #endif /* CYINT_VECT_TABLE */
  42:Generated_Source\PSoC5/rx_isr.c **** 
  43:Generated_Source\PSoC5/rx_isr.c **** /* Declared in startup, used to set unused interrupts to. */
  44:Generated_Source\PSoC5/rx_isr.c **** CY_ISR_PROTO(IntDefaultHandler);
  45:Generated_Source\PSoC5/rx_isr.c **** 
  46:Generated_Source\PSoC5/rx_isr.c **** 
  47:Generated_Source\PSoC5/rx_isr.c **** /*******************************************************************************
  48:Generated_Source\PSoC5/rx_isr.c **** * Function Name: rx_isr_Start
  49:Generated_Source\PSoC5/rx_isr.c **** ********************************************************************************
  50:Generated_Source\PSoC5/rx_isr.c **** *
  51:Generated_Source\PSoC5/rx_isr.c **** * Summary:
  52:Generated_Source\PSoC5/rx_isr.c **** *  Set up the interrupt and enable it. This function disables the interrupt, 
  53:Generated_Source\PSoC5/rx_isr.c **** *  sets the default interrupt vector, sets the priority from the value in the
  54:Generated_Source\PSoC5/rx_isr.c **** *  Design Wide Resources Interrupt Editor, then enables the interrupt to the 
  55:Generated_Source\PSoC5/rx_isr.c **** *  interrupt controller.
  56:Generated_Source\PSoC5/rx_isr.c **** *
  57:Generated_Source\PSoC5/rx_isr.c **** * Parameters:  
  58:Generated_Source\PSoC5/rx_isr.c **** *   None
  59:Generated_Source\PSoC5/rx_isr.c **** *
  60:Generated_Source\PSoC5/rx_isr.c **** * Return:
  61:Generated_Source\PSoC5/rx_isr.c **** *   None
  62:Generated_Source\PSoC5/rx_isr.c **** *
  63:Generated_Source\PSoC5/rx_isr.c **** *******************************************************************************/
  64:Generated_Source\PSoC5/rx_isr.c **** void rx_isr_Start(void)
  65:Generated_Source\PSoC5/rx_isr.c **** {
  66:Generated_Source\PSoC5/rx_isr.c ****     /* For all we know the interrupt is active. */
  67:Generated_Source\PSoC5/rx_isr.c ****     rx_isr_Disable();
  68:Generated_Source\PSoC5/rx_isr.c **** 
  69:Generated_Source\PSoC5/rx_isr.c ****     /* Set the ISR to point to the rx_isr Interrupt. */
  70:Generated_Source\PSoC5/rx_isr.c ****     rx_isr_SetVector(&rx_isr_Interrupt);
  71:Generated_Source\PSoC5/rx_isr.c **** 
  72:Generated_Source\PSoC5/rx_isr.c ****     /* Set the priority. */
  73:Generated_Source\PSoC5/rx_isr.c ****     rx_isr_SetPriority((uint8)rx_isr_INTC_PRIOR_NUMBER);
  74:Generated_Source\PSoC5/rx_isr.c **** 
  75:Generated_Source\PSoC5/rx_isr.c ****     /* Enable it. */
  76:Generated_Source\PSoC5/rx_isr.c ****     rx_isr_Enable();
  77:Generated_Source\PSoC5/rx_isr.c **** }
  78:Generated_Source\PSoC5/rx_isr.c **** 
  79:Generated_Source\PSoC5/rx_isr.c **** 
  80:Generated_Source\PSoC5/rx_isr.c **** /*******************************************************************************
  81:Generated_Source\PSoC5/rx_isr.c **** * Function Name: rx_isr_StartEx
  82:Generated_Source\PSoC5/rx_isr.c **** ********************************************************************************
  83:Generated_Source\PSoC5/rx_isr.c **** *
  84:Generated_Source\PSoC5/rx_isr.c **** * Summary:
  85:Generated_Source\PSoC5/rx_isr.c **** *  Sets up the interrupt and enables it. This function disables the interrupt,
  86:Generated_Source\PSoC5/rx_isr.c **** *  sets the interrupt vector based on the address passed in, sets the priority 
  87:Generated_Source\PSoC5/rx_isr.c **** *  from the value in the Design Wide Resources Interrupt Editor, then enables 
ARM GAS  C:\Users\pajoh\AppData\Local\Temp\ccHwFZfN.s 			page 3


  88:Generated_Source\PSoC5/rx_isr.c **** *  the interrupt to the interrupt controller.
  89:Generated_Source\PSoC5/rx_isr.c **** *  
  90:Generated_Source\PSoC5/rx_isr.c **** *  When defining ISR functions, the CY_ISR and CY_ISR_PROTO macros should be 
  91:Generated_Source\PSoC5/rx_isr.c **** *  used to provide consistent definition across compilers:
  92:Generated_Source\PSoC5/rx_isr.c **** *  
  93:Generated_Source\PSoC5/rx_isr.c **** *  Function definition example:
  94:Generated_Source\PSoC5/rx_isr.c **** *   CY_ISR(MyISR)
  95:Generated_Source\PSoC5/rx_isr.c **** *   {
  96:Generated_Source\PSoC5/rx_isr.c **** *   }
  97:Generated_Source\PSoC5/rx_isr.c **** *   Function prototype example:
  98:Generated_Source\PSoC5/rx_isr.c **** *   CY_ISR_PROTO(MyISR);
  99:Generated_Source\PSoC5/rx_isr.c **** *
 100:Generated_Source\PSoC5/rx_isr.c **** * Parameters:  
 101:Generated_Source\PSoC5/rx_isr.c **** *   address: Address of the ISR to set in the interrupt vector table.
 102:Generated_Source\PSoC5/rx_isr.c **** *
 103:Generated_Source\PSoC5/rx_isr.c **** * Return:
 104:Generated_Source\PSoC5/rx_isr.c **** *   None
 105:Generated_Source\PSoC5/rx_isr.c **** *
 106:Generated_Source\PSoC5/rx_isr.c **** *******************************************************************************/
 107:Generated_Source\PSoC5/rx_isr.c **** void rx_isr_StartEx(cyisraddress address)
 108:Generated_Source\PSoC5/rx_isr.c **** {
 109:Generated_Source\PSoC5/rx_isr.c ****     /* For all we know the interrupt is active. */
 110:Generated_Source\PSoC5/rx_isr.c ****     rx_isr_Disable();
 111:Generated_Source\PSoC5/rx_isr.c **** 
 112:Generated_Source\PSoC5/rx_isr.c ****     /* Set the ISR to point to the rx_isr Interrupt. */
 113:Generated_Source\PSoC5/rx_isr.c ****     rx_isr_SetVector(address);
 114:Generated_Source\PSoC5/rx_isr.c **** 
 115:Generated_Source\PSoC5/rx_isr.c ****     /* Set the priority. */
 116:Generated_Source\PSoC5/rx_isr.c ****     rx_isr_SetPriority((uint8)rx_isr_INTC_PRIOR_NUMBER);
 117:Generated_Source\PSoC5/rx_isr.c **** 
 118:Generated_Source\PSoC5/rx_isr.c ****     /* Enable it. */
 119:Generated_Source\PSoC5/rx_isr.c ****     rx_isr_Enable();
 120:Generated_Source\PSoC5/rx_isr.c **** }
 121:Generated_Source\PSoC5/rx_isr.c **** 
 122:Generated_Source\PSoC5/rx_isr.c **** 
 123:Generated_Source\PSoC5/rx_isr.c **** /*******************************************************************************
 124:Generated_Source\PSoC5/rx_isr.c **** * Function Name: rx_isr_Stop
 125:Generated_Source\PSoC5/rx_isr.c **** ********************************************************************************
 126:Generated_Source\PSoC5/rx_isr.c **** *
 127:Generated_Source\PSoC5/rx_isr.c **** * Summary:
 128:Generated_Source\PSoC5/rx_isr.c **** *   Disables and removes the interrupt.
 129:Generated_Source\PSoC5/rx_isr.c **** *
 130:Generated_Source\PSoC5/rx_isr.c **** * Parameters:  
 131:Generated_Source\PSoC5/rx_isr.c **** *   None
 132:Generated_Source\PSoC5/rx_isr.c **** *
 133:Generated_Source\PSoC5/rx_isr.c **** * Return:
 134:Generated_Source\PSoC5/rx_isr.c **** *   None
 135:Generated_Source\PSoC5/rx_isr.c **** *
 136:Generated_Source\PSoC5/rx_isr.c **** *******************************************************************************/
 137:Generated_Source\PSoC5/rx_isr.c **** void rx_isr_Stop(void)
 138:Generated_Source\PSoC5/rx_isr.c **** {
 139:Generated_Source\PSoC5/rx_isr.c ****     /* Disable this interrupt. */
 140:Generated_Source\PSoC5/rx_isr.c ****     rx_isr_Disable();
 141:Generated_Source\PSoC5/rx_isr.c **** 
 142:Generated_Source\PSoC5/rx_isr.c ****     /* Set the ISR to point to the passive one. */
 143:Generated_Source\PSoC5/rx_isr.c ****     rx_isr_SetVector(&IntDefaultHandler);
 144:Generated_Source\PSoC5/rx_isr.c **** }
ARM GAS  C:\Users\pajoh\AppData\Local\Temp\ccHwFZfN.s 			page 4


 145:Generated_Source\PSoC5/rx_isr.c **** 
 146:Generated_Source\PSoC5/rx_isr.c **** 
 147:Generated_Source\PSoC5/rx_isr.c **** /*******************************************************************************
 148:Generated_Source\PSoC5/rx_isr.c **** * Function Name: rx_isr_Interrupt
 149:Generated_Source\PSoC5/rx_isr.c **** ********************************************************************************
 150:Generated_Source\PSoC5/rx_isr.c **** *
 151:Generated_Source\PSoC5/rx_isr.c **** * Summary:
 152:Generated_Source\PSoC5/rx_isr.c **** *   The default Interrupt Service Routine for rx_isr.
 153:Generated_Source\PSoC5/rx_isr.c **** *
 154:Generated_Source\PSoC5/rx_isr.c **** *   Add custom code between the coments to keep the next version of this file
 155:Generated_Source\PSoC5/rx_isr.c **** *   from over writting your code.
 156:Generated_Source\PSoC5/rx_isr.c **** *
 157:Generated_Source\PSoC5/rx_isr.c **** * Parameters:  
 158:Generated_Source\PSoC5/rx_isr.c **** *
 159:Generated_Source\PSoC5/rx_isr.c **** * Return:
 160:Generated_Source\PSoC5/rx_isr.c **** *   None
 161:Generated_Source\PSoC5/rx_isr.c **** *
 162:Generated_Source\PSoC5/rx_isr.c **** *******************************************************************************/
 163:Generated_Source\PSoC5/rx_isr.c **** CY_ISR(rx_isr_Interrupt)
 164:Generated_Source\PSoC5/rx_isr.c **** {
  28              		.loc 1 164 0
  29              		.cfi_startproc
  30              		@ args = 0, pretend = 0, frame = 24
  31              		@ frame_needed = 0, uses_anonymous_args = 0
  32 0000 00B5     		push	{lr}
  33              		.cfi_def_cfa_offset 4
  34              		.cfi_offset 14, -4
  35 0002 87B0     		sub	sp, sp, #28
  36              		.cfi_def_cfa_offset 32
 165:Generated_Source\PSoC5/rx_isr.c ****     #ifdef rx_isr_INTERRUPT_INTERRUPT_CALLBACK
 166:Generated_Source\PSoC5/rx_isr.c ****         rx_isr_Interrupt_InterruptCallback();
 167:Generated_Source\PSoC5/rx_isr.c ****     #endif /* rx_isr_INTERRUPT_INTERRUPT_CALLBACK */ 
 168:Generated_Source\PSoC5/rx_isr.c **** 
 169:Generated_Source\PSoC5/rx_isr.c ****     /*  Place your Interrupt code here. */
 170:Generated_Source\PSoC5/rx_isr.c ****     /* `#START rx_isr_Interrupt` */
 171:Generated_Source\PSoC5/rx_isr.c ****     //goal is to receive input strings and parse them
 172:Generated_Source\PSoC5/rx_isr.c ****     //<2 byte command><1 byte joint><data><delimiter>
 173:Generated_Source\PSoC5/rx_isr.c ****     //delimiter should be '\r'
 174:Generated_Source\PSoC5/rx_isr.c ****     uint8 ch;
 175:Generated_Source\PSoC5/rx_isr.c ****     Message tmp_msg;
 176:Generated_Source\PSoC5/rx_isr.c ****     int i;
 177:Generated_Source\PSoC5/rx_isr.c ****     ch = UART_1_GetByte();
  37              		.loc 1 177 0
  38 0004 FFF7FEFF 		bl	UART_1_GetByte
  39              	.LVL0:
  40 0008 C0B2     		uxtb	r0, r0
  41              	.LVL1:
 178:Generated_Source\PSoC5/rx_isr.c ****     //UART_1_PutChar(ch);
 179:Generated_Source\PSoC5/rx_isr.c ****     rx_buffer[rx_index] = ch;
  42              		.loc 1 179 0
  43 000a 204B     		ldr	r3, .L8
  44 000c 1A68     		ldr	r2, [r3]
  45 000e 2049     		ldr	r1, .L8+4
  46 0010 8854     		strb	r0, [r1, r2]
 180:Generated_Source\PSoC5/rx_isr.c ****     rx_index++;
  47              		.loc 1 180 0
  48 0012 1A68     		ldr	r2, [r3]
ARM GAS  C:\Users\pajoh\AppData\Local\Temp\ccHwFZfN.s 			page 5


  49 0014 0132     		adds	r2, r2, #1
  50 0016 1A60     		str	r2, [r3]
 181:Generated_Source\PSoC5/rx_isr.c ****     if(rx_buffer[rx_index-1] == '\r'){
  51              		.loc 1 181 0
  52 0018 1B68     		ldr	r3, [r3]
  53 001a 013B     		subs	r3, r3, #1
  54 001c CB5C     		ldrb	r3, [r1, r3]	@ zero_extendqisi2
  55 001e DBB2     		uxtb	r3, r3
  56 0020 0D2B     		cmp	r3, #13
  57 0022 29D1     		bne	.L2
 182:Generated_Source\PSoC5/rx_isr.c ****         //delimiter has been found
 183:Generated_Source\PSoC5/rx_isr.c ****         tmp_msg.command = (rx_buffer[0]<<8)+rx_buffer[1];
  58              		.loc 1 183 0
  59 0024 0B46     		mov	r3, r1
  60 0026 0978     		ldrb	r1, [r1]	@ zero_extendqisi2
  61 0028 5A78     		ldrb	r2, [r3, #1]	@ zero_extendqisi2
  62 002a 02EB0122 		add	r2, r2, r1, lsl #8
  63 002e ADF80420 		strh	r2, [sp, #4]	@ movhi
 184:Generated_Source\PSoC5/rx_isr.c ****         tmp_msg.joint = rx_buffer[2] - 0x30;
  64              		.loc 1 184 0
  65 0032 9B78     		ldrb	r3, [r3, #2]	@ zero_extendqisi2
  66 0034 303B     		subs	r3, r3, #48
  67 0036 8DF80630 		strb	r3, [sp, #6]
 185:Generated_Source\PSoC5/rx_isr.c ****         if(rx_index >= DATA_SIZE){
  68              		.loc 1 185 0
  69 003a 144B     		ldr	r3, .L8
  70 003c 1B68     		ldr	r3, [r3]
  71 003e 0F2B     		cmp	r3, #15
  72 0040 0DDD     		ble	.L6
 186:Generated_Source\PSoC5/rx_isr.c ****             //unterminated command. Restart sequence on PC side.
 187:Generated_Source\PSoC5/rx_isr.c ****             //UART_1_PutString("NO");
 188:Generated_Source\PSoC5/rx_isr.c ****             rx_index = 0;
  73              		.loc 1 188 0
  74 0042 0022     		movs	r2, #0
  75 0044 114B     		ldr	r3, .L8
  76 0046 1A60     		str	r2, [r3]
  77 0048 16E0     		b	.L2
  78              	.LVL2:
  79              	.L4:
 189:Generated_Source\PSoC5/rx_isr.c ****         }
 190:Generated_Source\PSoC5/rx_isr.c ****         else{
 191:Generated_Source\PSoC5/rx_isr.c ****             for(i = 3; i < rx_index - 1; i++){
 192:Generated_Source\PSoC5/rx_isr.c ****                 tmp_msg.data[i-3] = rx_buffer[i] - 0x30;
  80              		.loc 1 192 0 discriminator 3
  81 004a DA1E     		subs	r2, r3, #3
  82 004c 1049     		ldr	r1, .L8+4
  83 004e C95C     		ldrb	r1, [r1, r3]	@ zero_extendqisi2
  84 0050 06A8     		add	r0, sp, #24
  85 0052 0244     		add	r2, r2, r0
  86 0054 3039     		subs	r1, r1, #48
  87 0056 02F8111C 		strb	r1, [r2, #-17]
 191:Generated_Source\PSoC5/rx_isr.c ****                 tmp_msg.data[i-3] = rx_buffer[i] - 0x30;
  88              		.loc 1 191 0 discriminator 3
  89 005a 0133     		adds	r3, r3, #1
  90              	.LVL3:
  91 005c 00E0     		b	.L3
  92              	.LVL4:
ARM GAS  C:\Users\pajoh\AppData\Local\Temp\ccHwFZfN.s 			page 6


  93              	.L6:
  94 005e 0323     		movs	r3, #3
  95              	.LVL5:
  96              	.L3:
 191:Generated_Source\PSoC5/rx_isr.c ****                 tmp_msg.data[i-3] = rx_buffer[i] - 0x30;
  97              		.loc 1 191 0 is_stmt 0 discriminator 1
  98 0060 0A4A     		ldr	r2, .L8
  99 0062 1268     		ldr	r2, [r2]
 100 0064 013A     		subs	r2, r2, #1
 101 0066 9342     		cmp	r3, r2
 102 0068 EFDB     		blt	.L4
 193:Generated_Source\PSoC5/rx_isr.c ****             }
 194:Generated_Source\PSoC5/rx_isr.c ****             message_buff_add(&msg_buff,&tmp_msg);
 103              		.loc 1 194 0 is_stmt 1
 104 006a 01A9     		add	r1, sp, #4
 105 006c 0948     		ldr	r0, .L8+8
 106 006e FFF7FEFF 		bl	message_buff_add
 107              	.LVL6:
 195:Generated_Source\PSoC5/rx_isr.c ****             rx_index = 0;
 108              		.loc 1 195 0
 109 0072 0022     		movs	r2, #0
 110 0074 054B     		ldr	r3, .L8
 111 0076 1A60     		str	r2, [r3]
 112              	.L2:
 196:Generated_Source\PSoC5/rx_isr.c ****             //for(i = 0; i < DATA_SIZE; i++){
 197:Generated_Source\PSoC5/rx_isr.c ****             //    tmp_msg.data[i] = 0;   
 198:Generated_Source\PSoC5/rx_isr.c ****             //}
 199:Generated_Source\PSoC5/rx_isr.c ****         }
 200:Generated_Source\PSoC5/rx_isr.c ****     }
 201:Generated_Source\PSoC5/rx_isr.c ****     if(rx_index >= RX_SIZE){
 113              		.loc 1 201 0
 114 0078 044B     		ldr	r3, .L8
 115 007a 1B68     		ldr	r3, [r3]
 116 007c 4F2B     		cmp	r3, #79
 117 007e 02DD     		ble	.L1
 202:Generated_Source\PSoC5/rx_isr.c ****         rx_index = 0;   
 118              		.loc 1 202 0
 119 0080 0022     		movs	r2, #0
 120 0082 024B     		ldr	r3, .L8
 121 0084 1A60     		str	r2, [r3]
 122              	.L1:
 203:Generated_Source\PSoC5/rx_isr.c ****     }
 204:Generated_Source\PSoC5/rx_isr.c ****     
 205:Generated_Source\PSoC5/rx_isr.c ****     
 206:Generated_Source\PSoC5/rx_isr.c ****     /* `#END` */
 207:Generated_Source\PSoC5/rx_isr.c **** }
 123              		.loc 1 207 0
 124 0086 07B0     		add	sp, sp, #28
 125              		.cfi_def_cfa_offset 4
 126              		@ sp needed
 127 0088 5DF804FB 		ldr	pc, [sp], #4
 128              	.L9:
 129              		.align	2
 130              	.L8:
 131 008c 00000000 		.word	rx_index
 132 0090 00000000 		.word	rx_buffer
 133 0094 00000000 		.word	msg_buff
ARM GAS  C:\Users\pajoh\AppData\Local\Temp\ccHwFZfN.s 			page 7


 134              		.cfi_endproc
 135              	.LFE67:
 136              		.size	rx_isr_Interrupt, .-rx_isr_Interrupt
 137              		.section	.text.rx_isr_SetVector,"ax",%progbits
 138              		.align	2
 139              		.global	rx_isr_SetVector
 140              		.thumb
 141              		.thumb_func
 142              		.type	rx_isr_SetVector, %function
 143              	rx_isr_SetVector:
 144              	.LFB68:
 208:Generated_Source\PSoC5/rx_isr.c **** 
 209:Generated_Source\PSoC5/rx_isr.c **** 
 210:Generated_Source\PSoC5/rx_isr.c **** /*******************************************************************************
 211:Generated_Source\PSoC5/rx_isr.c **** * Function Name: rx_isr_SetVector
 212:Generated_Source\PSoC5/rx_isr.c **** ********************************************************************************
 213:Generated_Source\PSoC5/rx_isr.c **** *
 214:Generated_Source\PSoC5/rx_isr.c **** * Summary:
 215:Generated_Source\PSoC5/rx_isr.c **** *   Change the ISR vector for the Interrupt. Note calling rx_isr_Start
 216:Generated_Source\PSoC5/rx_isr.c **** *   will override any effect this method would have had. To set the vector 
 217:Generated_Source\PSoC5/rx_isr.c **** *   before the component has been started use rx_isr_StartEx instead.
 218:Generated_Source\PSoC5/rx_isr.c **** * 
 219:Generated_Source\PSoC5/rx_isr.c **** *   When defining ISR functions, the CY_ISR and CY_ISR_PROTO macros should be 
 220:Generated_Source\PSoC5/rx_isr.c **** *   used to provide consistent definition across compilers:
 221:Generated_Source\PSoC5/rx_isr.c **** *
 222:Generated_Source\PSoC5/rx_isr.c **** *   Function definition example:
 223:Generated_Source\PSoC5/rx_isr.c **** *   CY_ISR(MyISR)
 224:Generated_Source\PSoC5/rx_isr.c **** *   {
 225:Generated_Source\PSoC5/rx_isr.c **** *   }
 226:Generated_Source\PSoC5/rx_isr.c **** *
 227:Generated_Source\PSoC5/rx_isr.c **** *   Function prototype example:
 228:Generated_Source\PSoC5/rx_isr.c **** *     CY_ISR_PROTO(MyISR);
 229:Generated_Source\PSoC5/rx_isr.c **** *
 230:Generated_Source\PSoC5/rx_isr.c **** * Parameters:
 231:Generated_Source\PSoC5/rx_isr.c **** *   address: Address of the ISR to set in the interrupt vector table.
 232:Generated_Source\PSoC5/rx_isr.c **** *
 233:Generated_Source\PSoC5/rx_isr.c **** * Return:
 234:Generated_Source\PSoC5/rx_isr.c **** *   None
 235:Generated_Source\PSoC5/rx_isr.c **** *
 236:Generated_Source\PSoC5/rx_isr.c **** *******************************************************************************/
 237:Generated_Source\PSoC5/rx_isr.c **** void rx_isr_SetVector(cyisraddress address)
 238:Generated_Source\PSoC5/rx_isr.c **** {
 145              		.loc 1 238 0
 146              		.cfi_startproc
 147              		@ args = 0, pretend = 0, frame = 0
 148              		@ frame_needed = 0, uses_anonymous_args = 0
 149              		@ link register save eliminated.
 150              	.LVL7:
 239:Generated_Source\PSoC5/rx_isr.c ****     cyisraddress * ramVectorTable;
 240:Generated_Source\PSoC5/rx_isr.c **** 
 241:Generated_Source\PSoC5/rx_isr.c ****     ramVectorTable = (cyisraddress *) *CYINT_VECT_TABLE;
 151              		.loc 1 241 0
 152 0000 014B     		ldr	r3, .L11
 153 0002 1B68     		ldr	r3, [r3]
 154              	.LVL8:
 242:Generated_Source\PSoC5/rx_isr.c **** 
 243:Generated_Source\PSoC5/rx_isr.c ****     ramVectorTable[CYINT_IRQ_BASE + (uint32)rx_isr__INTC_NUMBER] = address;
ARM GAS  C:\Users\pajoh\AppData\Local\Temp\ccHwFZfN.s 			page 8


 155              		.loc 1 243 0
 156 0004 5864     		str	r0, [r3, #68]
 157 0006 7047     		bx	lr
 158              	.L12:
 159              		.align	2
 160              	.L11:
 161 0008 08ED00E0 		.word	-536810232
 162              		.cfi_endproc
 163              	.LFE68:
 164              		.size	rx_isr_SetVector, .-rx_isr_SetVector
 165              		.section	.text.rx_isr_GetVector,"ax",%progbits
 166              		.align	2
 167              		.global	rx_isr_GetVector
 168              		.thumb
 169              		.thumb_func
 170              		.type	rx_isr_GetVector, %function
 171              	rx_isr_GetVector:
 172              	.LFB69:
 244:Generated_Source\PSoC5/rx_isr.c **** }
 245:Generated_Source\PSoC5/rx_isr.c **** 
 246:Generated_Source\PSoC5/rx_isr.c **** 
 247:Generated_Source\PSoC5/rx_isr.c **** /*******************************************************************************
 248:Generated_Source\PSoC5/rx_isr.c **** * Function Name: rx_isr_GetVector
 249:Generated_Source\PSoC5/rx_isr.c **** ********************************************************************************
 250:Generated_Source\PSoC5/rx_isr.c **** *
 251:Generated_Source\PSoC5/rx_isr.c **** * Summary:
 252:Generated_Source\PSoC5/rx_isr.c **** *   Gets the "address" of the current ISR vector for the Interrupt.
 253:Generated_Source\PSoC5/rx_isr.c **** *
 254:Generated_Source\PSoC5/rx_isr.c **** * Parameters:
 255:Generated_Source\PSoC5/rx_isr.c **** *   None
 256:Generated_Source\PSoC5/rx_isr.c **** *
 257:Generated_Source\PSoC5/rx_isr.c **** * Return:
 258:Generated_Source\PSoC5/rx_isr.c **** *   Address of the ISR in the interrupt vector table.
 259:Generated_Source\PSoC5/rx_isr.c **** *
 260:Generated_Source\PSoC5/rx_isr.c **** *******************************************************************************/
 261:Generated_Source\PSoC5/rx_isr.c **** cyisraddress rx_isr_GetVector(void)
 262:Generated_Source\PSoC5/rx_isr.c **** {
 173              		.loc 1 262 0
 174              		.cfi_startproc
 175              		@ args = 0, pretend = 0, frame = 0
 176              		@ frame_needed = 0, uses_anonymous_args = 0
 177              		@ link register save eliminated.
 263:Generated_Source\PSoC5/rx_isr.c ****     cyisraddress * ramVectorTable;
 264:Generated_Source\PSoC5/rx_isr.c **** 
 265:Generated_Source\PSoC5/rx_isr.c ****     ramVectorTable = (cyisraddress *) *CYINT_VECT_TABLE;
 178              		.loc 1 265 0
 179 0000 014B     		ldr	r3, .L14
 180 0002 1B68     		ldr	r3, [r3]
 181              	.LVL9:
 266:Generated_Source\PSoC5/rx_isr.c **** 
 267:Generated_Source\PSoC5/rx_isr.c ****     return ramVectorTable[CYINT_IRQ_BASE + (uint32)rx_isr__INTC_NUMBER];
 268:Generated_Source\PSoC5/rx_isr.c **** }
 182              		.loc 1 268 0
 183 0004 586C     		ldr	r0, [r3, #68]
 184 0006 7047     		bx	lr
 185              	.L15:
 186              		.align	2
ARM GAS  C:\Users\pajoh\AppData\Local\Temp\ccHwFZfN.s 			page 9


 187              	.L14:
 188 0008 08ED00E0 		.word	-536810232
 189              		.cfi_endproc
 190              	.LFE69:
 191              		.size	rx_isr_GetVector, .-rx_isr_GetVector
 192              		.section	.text.rx_isr_SetPriority,"ax",%progbits
 193              		.align	2
 194              		.global	rx_isr_SetPriority
 195              		.thumb
 196              		.thumb_func
 197              		.type	rx_isr_SetPriority, %function
 198              	rx_isr_SetPriority:
 199              	.LFB70:
 269:Generated_Source\PSoC5/rx_isr.c **** 
 270:Generated_Source\PSoC5/rx_isr.c **** 
 271:Generated_Source\PSoC5/rx_isr.c **** /*******************************************************************************
 272:Generated_Source\PSoC5/rx_isr.c **** * Function Name: rx_isr_SetPriority
 273:Generated_Source\PSoC5/rx_isr.c **** ********************************************************************************
 274:Generated_Source\PSoC5/rx_isr.c **** *
 275:Generated_Source\PSoC5/rx_isr.c **** * Summary:
 276:Generated_Source\PSoC5/rx_isr.c **** *   Sets the Priority of the Interrupt. 
 277:Generated_Source\PSoC5/rx_isr.c **** *
 278:Generated_Source\PSoC5/rx_isr.c **** *   Note calling rx_isr_Start or rx_isr_StartEx will 
 279:Generated_Source\PSoC5/rx_isr.c **** *   override any effect this API would have had. This API should only be called
 280:Generated_Source\PSoC5/rx_isr.c **** *   after rx_isr_Start or rx_isr_StartEx has been called. 
 281:Generated_Source\PSoC5/rx_isr.c **** *   To set the initial priority for the component, use the Design-Wide Resources
 282:Generated_Source\PSoC5/rx_isr.c **** *   Interrupt Editor.
 283:Generated_Source\PSoC5/rx_isr.c **** *
 284:Generated_Source\PSoC5/rx_isr.c **** *   Note This API has no effect on Non-maskable interrupt NMI).
 285:Generated_Source\PSoC5/rx_isr.c **** *
 286:Generated_Source\PSoC5/rx_isr.c **** * Parameters:
 287:Generated_Source\PSoC5/rx_isr.c **** *   priority: Priority of the interrupt, 0 being the highest priority
 288:Generated_Source\PSoC5/rx_isr.c **** *             PSoC 3 and PSoC 5LP: Priority is from 0 to 7.
 289:Generated_Source\PSoC5/rx_isr.c **** *             PSoC 4: Priority is from 0 to 3.
 290:Generated_Source\PSoC5/rx_isr.c **** *
 291:Generated_Source\PSoC5/rx_isr.c **** * Return:
 292:Generated_Source\PSoC5/rx_isr.c **** *   None
 293:Generated_Source\PSoC5/rx_isr.c **** *
 294:Generated_Source\PSoC5/rx_isr.c **** *******************************************************************************/
 295:Generated_Source\PSoC5/rx_isr.c **** void rx_isr_SetPriority(uint8 priority)
 296:Generated_Source\PSoC5/rx_isr.c **** {
 200              		.loc 1 296 0
 201              		.cfi_startproc
 202              		@ args = 0, pretend = 0, frame = 0
 203              		@ frame_needed = 0, uses_anonymous_args = 0
 204              		@ link register save eliminated.
 205              	.LVL10:
 297:Generated_Source\PSoC5/rx_isr.c ****     *rx_isr_INTC_PRIOR = priority << 5;
 206              		.loc 1 297 0
 207 0000 4001     		lsls	r0, r0, #5
 208              	.LVL11:
 209 0002 C0B2     		uxtb	r0, r0
 210 0004 014B     		ldr	r3, .L17
 211 0006 1870     		strb	r0, [r3]
 212 0008 7047     		bx	lr
 213              	.L18:
 214 000a 00BF     		.align	2
ARM GAS  C:\Users\pajoh\AppData\Local\Temp\ccHwFZfN.s 			page 10


 215              	.L17:
 216 000c 01E400E0 		.word	-536812543
 217              		.cfi_endproc
 218              	.LFE70:
 219              		.size	rx_isr_SetPriority, .-rx_isr_SetPriority
 220              		.section	.text.rx_isr_GetPriority,"ax",%progbits
 221              		.align	2
 222              		.global	rx_isr_GetPriority
 223              		.thumb
 224              		.thumb_func
 225              		.type	rx_isr_GetPriority, %function
 226              	rx_isr_GetPriority:
 227              	.LFB71:
 298:Generated_Source\PSoC5/rx_isr.c **** }
 299:Generated_Source\PSoC5/rx_isr.c **** 
 300:Generated_Source\PSoC5/rx_isr.c **** 
 301:Generated_Source\PSoC5/rx_isr.c **** /*******************************************************************************
 302:Generated_Source\PSoC5/rx_isr.c **** * Function Name: rx_isr_GetPriority
 303:Generated_Source\PSoC5/rx_isr.c **** ********************************************************************************
 304:Generated_Source\PSoC5/rx_isr.c **** *
 305:Generated_Source\PSoC5/rx_isr.c **** * Summary:
 306:Generated_Source\PSoC5/rx_isr.c **** *   Gets the Priority of the Interrupt.
 307:Generated_Source\PSoC5/rx_isr.c **** *
 308:Generated_Source\PSoC5/rx_isr.c **** * Parameters:
 309:Generated_Source\PSoC5/rx_isr.c **** *   None
 310:Generated_Source\PSoC5/rx_isr.c **** *
 311:Generated_Source\PSoC5/rx_isr.c **** * Return:
 312:Generated_Source\PSoC5/rx_isr.c **** *   Priority of the interrupt, 0 being the highest priority
 313:Generated_Source\PSoC5/rx_isr.c **** *    PSoC 3 and PSoC 5LP: Priority is from 0 to 7.
 314:Generated_Source\PSoC5/rx_isr.c **** *    PSoC 4: Priority is from 0 to 3.
 315:Generated_Source\PSoC5/rx_isr.c **** *
 316:Generated_Source\PSoC5/rx_isr.c **** *******************************************************************************/
 317:Generated_Source\PSoC5/rx_isr.c **** uint8 rx_isr_GetPriority(void)
 318:Generated_Source\PSoC5/rx_isr.c **** {
 228              		.loc 1 318 0
 229              		.cfi_startproc
 230              		@ args = 0, pretend = 0, frame = 0
 231              		@ frame_needed = 0, uses_anonymous_args = 0
 232              		@ link register save eliminated.
 319:Generated_Source\PSoC5/rx_isr.c ****     uint8 priority;
 320:Generated_Source\PSoC5/rx_isr.c **** 
 321:Generated_Source\PSoC5/rx_isr.c **** 
 322:Generated_Source\PSoC5/rx_isr.c ****     priority = *rx_isr_INTC_PRIOR >> 5;
 233              		.loc 1 322 0
 234 0000 014B     		ldr	r3, .L20
 235 0002 1878     		ldrb	r0, [r3]	@ zero_extendqisi2
 236              	.LVL12:
 323:Generated_Source\PSoC5/rx_isr.c **** 
 324:Generated_Source\PSoC5/rx_isr.c ****     return priority;
 325:Generated_Source\PSoC5/rx_isr.c **** }
 237              		.loc 1 325 0
 238 0004 4009     		lsrs	r0, r0, #5
 239              	.LVL13:
 240 0006 7047     		bx	lr
 241              	.L21:
 242              		.align	2
 243              	.L20:
ARM GAS  C:\Users\pajoh\AppData\Local\Temp\ccHwFZfN.s 			page 11


 244 0008 01E400E0 		.word	-536812543
 245              		.cfi_endproc
 246              	.LFE71:
 247              		.size	rx_isr_GetPriority, .-rx_isr_GetPriority
 248              		.section	.text.rx_isr_Enable,"ax",%progbits
 249              		.align	2
 250              		.global	rx_isr_Enable
 251              		.thumb
 252              		.thumb_func
 253              		.type	rx_isr_Enable, %function
 254              	rx_isr_Enable:
 255              	.LFB72:
 326:Generated_Source\PSoC5/rx_isr.c **** 
 327:Generated_Source\PSoC5/rx_isr.c **** 
 328:Generated_Source\PSoC5/rx_isr.c **** /*******************************************************************************
 329:Generated_Source\PSoC5/rx_isr.c **** * Function Name: rx_isr_Enable
 330:Generated_Source\PSoC5/rx_isr.c **** ********************************************************************************
 331:Generated_Source\PSoC5/rx_isr.c **** *
 332:Generated_Source\PSoC5/rx_isr.c **** * Summary:
 333:Generated_Source\PSoC5/rx_isr.c **** *   Enables the interrupt to the interrupt controller. Do not call this function
 334:Generated_Source\PSoC5/rx_isr.c **** *   unless ISR_Start() has been called or the functionality of the ISR_Start() 
 335:Generated_Source\PSoC5/rx_isr.c **** *   function, which sets the vector and the priority, has been called.
 336:Generated_Source\PSoC5/rx_isr.c **** *
 337:Generated_Source\PSoC5/rx_isr.c **** * Parameters:
 338:Generated_Source\PSoC5/rx_isr.c **** *   None
 339:Generated_Source\PSoC5/rx_isr.c **** *
 340:Generated_Source\PSoC5/rx_isr.c **** * Return:
 341:Generated_Source\PSoC5/rx_isr.c **** *   None
 342:Generated_Source\PSoC5/rx_isr.c **** *
 343:Generated_Source\PSoC5/rx_isr.c **** *******************************************************************************/
 344:Generated_Source\PSoC5/rx_isr.c **** void rx_isr_Enable(void)
 345:Generated_Source\PSoC5/rx_isr.c **** {
 256              		.loc 1 345 0
 257              		.cfi_startproc
 258              		@ args = 0, pretend = 0, frame = 0
 259              		@ frame_needed = 0, uses_anonymous_args = 0
 260              		@ link register save eliminated.
 346:Generated_Source\PSoC5/rx_isr.c ****     /* Enable the general interrupt. */
 347:Generated_Source\PSoC5/rx_isr.c ****     *rx_isr_INTC_SET_EN = rx_isr__INTC_MASK;
 261              		.loc 1 347 0
 262 0000 0222     		movs	r2, #2
 263 0002 014B     		ldr	r3, .L23
 264 0004 1A60     		str	r2, [r3]
 265 0006 7047     		bx	lr
 266              	.L24:
 267              		.align	2
 268              	.L23:
 269 0008 00E100E0 		.word	-536813312
 270              		.cfi_endproc
 271              	.LFE72:
 272              		.size	rx_isr_Enable, .-rx_isr_Enable
 273              		.section	.text.rx_isr_GetState,"ax",%progbits
 274              		.align	2
 275              		.global	rx_isr_GetState
 276              		.thumb
 277              		.thumb_func
 278              		.type	rx_isr_GetState, %function
ARM GAS  C:\Users\pajoh\AppData\Local\Temp\ccHwFZfN.s 			page 12


 279              	rx_isr_GetState:
 280              	.LFB73:
 348:Generated_Source\PSoC5/rx_isr.c **** }
 349:Generated_Source\PSoC5/rx_isr.c **** 
 350:Generated_Source\PSoC5/rx_isr.c **** 
 351:Generated_Source\PSoC5/rx_isr.c **** /*******************************************************************************
 352:Generated_Source\PSoC5/rx_isr.c **** * Function Name: rx_isr_GetState
 353:Generated_Source\PSoC5/rx_isr.c **** ********************************************************************************
 354:Generated_Source\PSoC5/rx_isr.c **** *
 355:Generated_Source\PSoC5/rx_isr.c **** * Summary:
 356:Generated_Source\PSoC5/rx_isr.c **** *   Gets the state (enabled, disabled) of the Interrupt.
 357:Generated_Source\PSoC5/rx_isr.c **** *
 358:Generated_Source\PSoC5/rx_isr.c **** * Parameters:
 359:Generated_Source\PSoC5/rx_isr.c **** *   None
 360:Generated_Source\PSoC5/rx_isr.c **** *
 361:Generated_Source\PSoC5/rx_isr.c **** * Return:
 362:Generated_Source\PSoC5/rx_isr.c **** *   1 if enabled, 0 if disabled.
 363:Generated_Source\PSoC5/rx_isr.c **** *
 364:Generated_Source\PSoC5/rx_isr.c **** *******************************************************************************/
 365:Generated_Source\PSoC5/rx_isr.c **** uint8 rx_isr_GetState(void)
 366:Generated_Source\PSoC5/rx_isr.c **** {
 281              		.loc 1 366 0
 282              		.cfi_startproc
 283              		@ args = 0, pretend = 0, frame = 0
 284              		@ frame_needed = 0, uses_anonymous_args = 0
 285              		@ link register save eliminated.
 367:Generated_Source\PSoC5/rx_isr.c ****     /* Get the state of the general interrupt. */
 368:Generated_Source\PSoC5/rx_isr.c ****     return ((*rx_isr_INTC_SET_EN & (uint32)rx_isr__INTC_MASK) != 0u) ? 1u:0u;
 286              		.loc 1 368 0
 287 0000 044B     		ldr	r3, .L28
 288 0002 1B68     		ldr	r3, [r3]
 289 0004 13F0020F 		tst	r3, #2
 290 0008 01D0     		beq	.L27
 291 000a 0120     		movs	r0, #1
 292 000c 7047     		bx	lr
 293              	.L27:
 294 000e 0020     		movs	r0, #0
 369:Generated_Source\PSoC5/rx_isr.c **** }
 295              		.loc 1 369 0
 296 0010 7047     		bx	lr
 297              	.L29:
 298 0012 00BF     		.align	2
 299              	.L28:
 300 0014 00E100E0 		.word	-536813312
 301              		.cfi_endproc
 302              	.LFE73:
 303              		.size	rx_isr_GetState, .-rx_isr_GetState
 304              		.section	.text.rx_isr_Disable,"ax",%progbits
 305              		.align	2
 306              		.global	rx_isr_Disable
 307              		.thumb
 308              		.thumb_func
 309              		.type	rx_isr_Disable, %function
 310              	rx_isr_Disable:
 311              	.LFB74:
 370:Generated_Source\PSoC5/rx_isr.c **** 
 371:Generated_Source\PSoC5/rx_isr.c **** 
ARM GAS  C:\Users\pajoh\AppData\Local\Temp\ccHwFZfN.s 			page 13


 372:Generated_Source\PSoC5/rx_isr.c **** /*******************************************************************************
 373:Generated_Source\PSoC5/rx_isr.c **** * Function Name: rx_isr_Disable
 374:Generated_Source\PSoC5/rx_isr.c **** ********************************************************************************
 375:Generated_Source\PSoC5/rx_isr.c **** *
 376:Generated_Source\PSoC5/rx_isr.c **** * Summary:
 377:Generated_Source\PSoC5/rx_isr.c **** *   Disables the Interrupt in the interrupt controller.
 378:Generated_Source\PSoC5/rx_isr.c **** *
 379:Generated_Source\PSoC5/rx_isr.c **** * Parameters:
 380:Generated_Source\PSoC5/rx_isr.c **** *   None
 381:Generated_Source\PSoC5/rx_isr.c **** *
 382:Generated_Source\PSoC5/rx_isr.c **** * Return:
 383:Generated_Source\PSoC5/rx_isr.c **** *   None
 384:Generated_Source\PSoC5/rx_isr.c **** *
 385:Generated_Source\PSoC5/rx_isr.c **** *******************************************************************************/
 386:Generated_Source\PSoC5/rx_isr.c **** void rx_isr_Disable(void)
 387:Generated_Source\PSoC5/rx_isr.c **** {
 312              		.loc 1 387 0
 313              		.cfi_startproc
 314              		@ args = 0, pretend = 0, frame = 0
 315              		@ frame_needed = 0, uses_anonymous_args = 0
 316              		@ link register save eliminated.
 388:Generated_Source\PSoC5/rx_isr.c ****     /* Disable the general interrupt. */
 389:Generated_Source\PSoC5/rx_isr.c ****     *rx_isr_INTC_CLR_EN = rx_isr__INTC_MASK;
 317              		.loc 1 389 0
 318 0000 0222     		movs	r2, #2
 319 0002 014B     		ldr	r3, .L31
 320 0004 1A60     		str	r2, [r3]
 321 0006 7047     		bx	lr
 322              	.L32:
 323              		.align	2
 324              	.L31:
 325 0008 80E100E0 		.word	-536813184
 326              		.cfi_endproc
 327              	.LFE74:
 328              		.size	rx_isr_Disable, .-rx_isr_Disable
 329              		.section	.text.rx_isr_Start,"ax",%progbits
 330              		.align	2
 331              		.global	rx_isr_Start
 332              		.thumb
 333              		.thumb_func
 334              		.type	rx_isr_Start, %function
 335              	rx_isr_Start:
 336              	.LFB64:
  65:Generated_Source\PSoC5/rx_isr.c ****     /* For all we know the interrupt is active. */
 337              		.loc 1 65 0
 338              		.cfi_startproc
 339              		@ args = 0, pretend = 0, frame = 0
 340              		@ frame_needed = 0, uses_anonymous_args = 0
 341 0000 08B5     		push	{r3, lr}
 342              		.cfi_def_cfa_offset 8
 343              		.cfi_offset 3, -8
 344              		.cfi_offset 14, -4
  67:Generated_Source\PSoC5/rx_isr.c **** 
 345              		.loc 1 67 0
 346 0002 FFF7FEFF 		bl	rx_isr_Disable
 347              	.LVL14:
  70:Generated_Source\PSoC5/rx_isr.c **** 
ARM GAS  C:\Users\pajoh\AppData\Local\Temp\ccHwFZfN.s 			page 14


 348              		.loc 1 70 0
 349 0006 0448     		ldr	r0, .L35
 350 0008 FFF7FEFF 		bl	rx_isr_SetVector
 351              	.LVL15:
  73:Generated_Source\PSoC5/rx_isr.c **** 
 352              		.loc 1 73 0
 353 000c 0420     		movs	r0, #4
 354 000e FFF7FEFF 		bl	rx_isr_SetPriority
 355              	.LVL16:
  76:Generated_Source\PSoC5/rx_isr.c **** }
 356              		.loc 1 76 0
 357 0012 FFF7FEFF 		bl	rx_isr_Enable
 358              	.LVL17:
 359 0016 08BD     		pop	{r3, pc}
 360              	.L36:
 361              		.align	2
 362              	.L35:
 363 0018 00000000 		.word	rx_isr_Interrupt
 364              		.cfi_endproc
 365              	.LFE64:
 366              		.size	rx_isr_Start, .-rx_isr_Start
 367              		.section	.text.rx_isr_StartEx,"ax",%progbits
 368              		.align	2
 369              		.global	rx_isr_StartEx
 370              		.thumb
 371              		.thumb_func
 372              		.type	rx_isr_StartEx, %function
 373              	rx_isr_StartEx:
 374              	.LFB65:
 108:Generated_Source\PSoC5/rx_isr.c ****     /* For all we know the interrupt is active. */
 375              		.loc 1 108 0
 376              		.cfi_startproc
 377              		@ args = 0, pretend = 0, frame = 0
 378              		@ frame_needed = 0, uses_anonymous_args = 0
 379              	.LVL18:
 380 0000 10B5     		push	{r4, lr}
 381              		.cfi_def_cfa_offset 8
 382              		.cfi_offset 4, -8
 383              		.cfi_offset 14, -4
 384 0002 0446     		mov	r4, r0
 110:Generated_Source\PSoC5/rx_isr.c **** 
 385              		.loc 1 110 0
 386 0004 FFF7FEFF 		bl	rx_isr_Disable
 387              	.LVL19:
 113:Generated_Source\PSoC5/rx_isr.c **** 
 388              		.loc 1 113 0
 389 0008 2046     		mov	r0, r4
 390 000a FFF7FEFF 		bl	rx_isr_SetVector
 391              	.LVL20:
 116:Generated_Source\PSoC5/rx_isr.c **** 
 392              		.loc 1 116 0
 393 000e 0420     		movs	r0, #4
 394 0010 FFF7FEFF 		bl	rx_isr_SetPriority
 395              	.LVL21:
 119:Generated_Source\PSoC5/rx_isr.c **** }
 396              		.loc 1 119 0
 397 0014 FFF7FEFF 		bl	rx_isr_Enable
ARM GAS  C:\Users\pajoh\AppData\Local\Temp\ccHwFZfN.s 			page 15


 398              	.LVL22:
 399 0018 10BD     		pop	{r4, pc}
 400              		.cfi_endproc
 401              	.LFE65:
 402              		.size	rx_isr_StartEx, .-rx_isr_StartEx
 403 001a 00BF     		.section	.text.rx_isr_Stop,"ax",%progbits
 404              		.align	2
 405              		.global	rx_isr_Stop
 406              		.thumb
 407              		.thumb_func
 408              		.type	rx_isr_Stop, %function
 409              	rx_isr_Stop:
 410              	.LFB66:
 138:Generated_Source\PSoC5/rx_isr.c ****     /* Disable this interrupt. */
 411              		.loc 1 138 0
 412              		.cfi_startproc
 413              		@ args = 0, pretend = 0, frame = 0
 414              		@ frame_needed = 0, uses_anonymous_args = 0
 415 0000 08B5     		push	{r3, lr}
 416              		.cfi_def_cfa_offset 8
 417              		.cfi_offset 3, -8
 418              		.cfi_offset 14, -4
 140:Generated_Source\PSoC5/rx_isr.c **** 
 419              		.loc 1 140 0
 420 0002 FFF7FEFF 		bl	rx_isr_Disable
 421              	.LVL23:
 143:Generated_Source\PSoC5/rx_isr.c **** }
 422              		.loc 1 143 0
 423 0006 0248     		ldr	r0, .L41
 424 0008 FFF7FEFF 		bl	rx_isr_SetVector
 425              	.LVL24:
 426 000c 08BD     		pop	{r3, pc}
 427              	.L42:
 428 000e 00BF     		.align	2
 429              	.L41:
 430 0010 00000000 		.word	IntDefaultHandler
 431              		.cfi_endproc
 432              	.LFE66:
 433              		.size	rx_isr_Stop, .-rx_isr_Stop
 434              		.section	.text.rx_isr_SetPending,"ax",%progbits
 435              		.align	2
 436              		.global	rx_isr_SetPending
 437              		.thumb
 438              		.thumb_func
 439              		.type	rx_isr_SetPending, %function
 440              	rx_isr_SetPending:
 441              	.LFB75:
 390:Generated_Source\PSoC5/rx_isr.c **** }
 391:Generated_Source\PSoC5/rx_isr.c **** 
 392:Generated_Source\PSoC5/rx_isr.c **** 
 393:Generated_Source\PSoC5/rx_isr.c **** /*******************************************************************************
 394:Generated_Source\PSoC5/rx_isr.c **** * Function Name: rx_isr_SetPending
 395:Generated_Source\PSoC5/rx_isr.c **** ********************************************************************************
 396:Generated_Source\PSoC5/rx_isr.c **** *
 397:Generated_Source\PSoC5/rx_isr.c **** * Summary:
 398:Generated_Source\PSoC5/rx_isr.c **** *   Causes the Interrupt to enter the pending state, a software method of
 399:Generated_Source\PSoC5/rx_isr.c **** *   generating the interrupt.
ARM GAS  C:\Users\pajoh\AppData\Local\Temp\ccHwFZfN.s 			page 16


 400:Generated_Source\PSoC5/rx_isr.c **** *
 401:Generated_Source\PSoC5/rx_isr.c **** * Parameters:
 402:Generated_Source\PSoC5/rx_isr.c **** *   None
 403:Generated_Source\PSoC5/rx_isr.c **** *
 404:Generated_Source\PSoC5/rx_isr.c **** * Return:
 405:Generated_Source\PSoC5/rx_isr.c **** *   None
 406:Generated_Source\PSoC5/rx_isr.c **** *
 407:Generated_Source\PSoC5/rx_isr.c **** * Side Effects:
 408:Generated_Source\PSoC5/rx_isr.c **** *   If interrupts are enabled and the interrupt is set up properly, the ISR is
 409:Generated_Source\PSoC5/rx_isr.c **** *   entered (depending on the priority of this interrupt and other pending 
 410:Generated_Source\PSoC5/rx_isr.c **** *   interrupts).
 411:Generated_Source\PSoC5/rx_isr.c **** *
 412:Generated_Source\PSoC5/rx_isr.c **** *******************************************************************************/
 413:Generated_Source\PSoC5/rx_isr.c **** void rx_isr_SetPending(void)
 414:Generated_Source\PSoC5/rx_isr.c **** {
 442              		.loc 1 414 0
 443              		.cfi_startproc
 444              		@ args = 0, pretend = 0, frame = 0
 445              		@ frame_needed = 0, uses_anonymous_args = 0
 446              		@ link register save eliminated.
 415:Generated_Source\PSoC5/rx_isr.c ****     *rx_isr_INTC_SET_PD = rx_isr__INTC_MASK;
 447              		.loc 1 415 0
 448 0000 0222     		movs	r2, #2
 449 0002 014B     		ldr	r3, .L44
 450 0004 1A60     		str	r2, [r3]
 451 0006 7047     		bx	lr
 452              	.L45:
 453              		.align	2
 454              	.L44:
 455 0008 00E200E0 		.word	-536813056
 456              		.cfi_endproc
 457              	.LFE75:
 458              		.size	rx_isr_SetPending, .-rx_isr_SetPending
 459              		.section	.text.rx_isr_ClearPending,"ax",%progbits
 460              		.align	2
 461              		.global	rx_isr_ClearPending
 462              		.thumb
 463              		.thumb_func
 464              		.type	rx_isr_ClearPending, %function
 465              	rx_isr_ClearPending:
 466              	.LFB76:
 416:Generated_Source\PSoC5/rx_isr.c **** }
 417:Generated_Source\PSoC5/rx_isr.c **** 
 418:Generated_Source\PSoC5/rx_isr.c **** 
 419:Generated_Source\PSoC5/rx_isr.c **** /*******************************************************************************
 420:Generated_Source\PSoC5/rx_isr.c **** * Function Name: rx_isr_ClearPending
 421:Generated_Source\PSoC5/rx_isr.c **** ********************************************************************************
 422:Generated_Source\PSoC5/rx_isr.c **** *
 423:Generated_Source\PSoC5/rx_isr.c **** * Summary:
 424:Generated_Source\PSoC5/rx_isr.c **** *   Clears a pending interrupt in the interrupt controller.
 425:Generated_Source\PSoC5/rx_isr.c **** *
 426:Generated_Source\PSoC5/rx_isr.c **** *   Note Some interrupt sources are clear-on-read and require the block 
 427:Generated_Source\PSoC5/rx_isr.c **** *   interrupt/status register to be read/cleared with the appropriate block API 
 428:Generated_Source\PSoC5/rx_isr.c **** *   (GPIO, UART, and so on). Otherwise the ISR will continue to remain in 
 429:Generated_Source\PSoC5/rx_isr.c **** *   pending state even though the interrupt itself is cleared using this API.
 430:Generated_Source\PSoC5/rx_isr.c **** *
 431:Generated_Source\PSoC5/rx_isr.c **** * Parameters:
ARM GAS  C:\Users\pajoh\AppData\Local\Temp\ccHwFZfN.s 			page 17


 432:Generated_Source\PSoC5/rx_isr.c **** *   None
 433:Generated_Source\PSoC5/rx_isr.c **** *
 434:Generated_Source\PSoC5/rx_isr.c **** * Return:
 435:Generated_Source\PSoC5/rx_isr.c **** *   None
 436:Generated_Source\PSoC5/rx_isr.c **** *
 437:Generated_Source\PSoC5/rx_isr.c **** *******************************************************************************/
 438:Generated_Source\PSoC5/rx_isr.c **** void rx_isr_ClearPending(void)
 439:Generated_Source\PSoC5/rx_isr.c **** {
 467              		.loc 1 439 0
 468              		.cfi_startproc
 469              		@ args = 0, pretend = 0, frame = 0
 470              		@ frame_needed = 0, uses_anonymous_args = 0
 471              		@ link register save eliminated.
 440:Generated_Source\PSoC5/rx_isr.c ****     *rx_isr_INTC_CLR_PD = rx_isr__INTC_MASK;
 472              		.loc 1 440 0
 473 0000 0222     		movs	r2, #2
 474 0002 014B     		ldr	r3, .L47
 475 0004 1A60     		str	r2, [r3]
 476 0006 7047     		bx	lr
 477              	.L48:
 478              		.align	2
 479              	.L47:
 480 0008 80E200E0 		.word	-536812928
 481              		.cfi_endproc
 482              	.LFE76:
 483              		.size	rx_isr_ClearPending, .-rx_isr_ClearPending
 484              		.comm	TransmitBuffer,80,4
 485              		.comm	rx_index,4,4
 486              		.comm	rx_buffer,80,4
 487              		.comm	move_queue,1208,4
 488              		.comm	msg_buff,1006,4
 489              		.comm	joints,108,4
 490              		.comm	J1_home,4,4
 491              		.comm	read_angle_command,2,2
 492              		.text
 493              	.Letext0:
 494              		.file 2 "c:\\program files (x86)\\cypress\\psoc creator\\4.2\\psoc creator\\import\\gnu\\arm\\5.4.
 495              		.file 3 "c:\\program files (x86)\\cypress\\psoc creator\\4.2\\psoc creator\\import\\gnu\\arm\\5.4.
 496              		.file 4 "Generated_Source\\PSoC5/cytypes.h"
 497              		.file 5 "./joints.h"
 498              		.file 6 "./comms.h"
 499              		.file 7 "./as5048.h"
 500              		.file 8 "Generated_Source\\PSoC5/core_cm3.h"
 501              		.file 9 "Generated_Source\\PSoC5/UART_1.h"