ARM GAS  C:\Users\pajoh\AppData\Local\Temp\ccABZ0A6.s 			page 1


   1              		.syntax unified
   2              		.cpu cortex-m3
   3              		.fpu softvfp
   4              		.eabi_attribute 20, 1
   5              		.eabi_attribute 21, 1
   6              		.eabi_attribute 23, 3
   7              		.eabi_attribute 24, 1
   8              		.eabi_attribute 25, 1
   9              		.eabi_attribute 26, 1
  10              		.eabi_attribute 30, 1
  11              		.eabi_attribute 34, 1
  12              		.eabi_attribute 18, 4
  13              		.thumb
  14              		.syntax unified
  15              		.file	"SPIM_1.c"
  16              		.text
  17              	.Ltext0:
  18              		.cfi_sections	.debug_frame
  19              		.section	.text.SPIM_1_Enable,"ax",%progbits
  20              		.align	2
  21              		.global	SPIM_1_Enable
  22              		.thumb
  23              		.thumb_func
  24              		.type	SPIM_1_Enable, %function
  25              	SPIM_1_Enable:
  26              	.LFB1:
  27              		.file 1 "Generated_Source\\PSoC5\\SPIM_1.c"
   1:Generated_Source\PSoC5/SPIM_1.c **** /*******************************************************************************
   2:Generated_Source\PSoC5/SPIM_1.c **** * File Name: SPIM_1.c
   3:Generated_Source\PSoC5/SPIM_1.c **** * Version 2.50
   4:Generated_Source\PSoC5/SPIM_1.c **** *
   5:Generated_Source\PSoC5/SPIM_1.c **** * Description:
   6:Generated_Source\PSoC5/SPIM_1.c **** *  This file provides all API functionality of the SPI Master component.
   7:Generated_Source\PSoC5/SPIM_1.c **** *
   8:Generated_Source\PSoC5/SPIM_1.c **** * Note:
   9:Generated_Source\PSoC5/SPIM_1.c **** *  None.
  10:Generated_Source\PSoC5/SPIM_1.c **** *
  11:Generated_Source\PSoC5/SPIM_1.c **** ********************************************************************************
  12:Generated_Source\PSoC5/SPIM_1.c **** * Copyright 2008-2015, Cypress Semiconductor Corporation.  All rights reserved.
  13:Generated_Source\PSoC5/SPIM_1.c **** * You may use this file only in accordance with the license, terms, conditions,
  14:Generated_Source\PSoC5/SPIM_1.c **** * disclaimers, and limitations in the end user license agreement accompanying
  15:Generated_Source\PSoC5/SPIM_1.c **** * the software package with which this file was provided.
  16:Generated_Source\PSoC5/SPIM_1.c **** *******************************************************************************/
  17:Generated_Source\PSoC5/SPIM_1.c **** 
  18:Generated_Source\PSoC5/SPIM_1.c **** #include "SPIM_1_PVT.h"
  19:Generated_Source\PSoC5/SPIM_1.c **** 
  20:Generated_Source\PSoC5/SPIM_1.c **** #if(SPIM_1_TX_SOFTWARE_BUF_ENABLED)
  21:Generated_Source\PSoC5/SPIM_1.c ****     volatile uint8 SPIM_1_txBuffer[SPIM_1_TX_BUFFER_SIZE];
  22:Generated_Source\PSoC5/SPIM_1.c ****     volatile uint8 SPIM_1_txBufferFull;
  23:Generated_Source\PSoC5/SPIM_1.c ****     volatile uint8 SPIM_1_txBufferRead;
  24:Generated_Source\PSoC5/SPIM_1.c ****     volatile uint8 SPIM_1_txBufferWrite;
  25:Generated_Source\PSoC5/SPIM_1.c **** #endif /* (SPIM_1_TX_SOFTWARE_BUF_ENABLED) */
  26:Generated_Source\PSoC5/SPIM_1.c **** 
  27:Generated_Source\PSoC5/SPIM_1.c **** #if(SPIM_1_RX_SOFTWARE_BUF_ENABLED)
  28:Generated_Source\PSoC5/SPIM_1.c ****     volatile uint8 SPIM_1_rxBuffer[SPIM_1_RX_BUFFER_SIZE];
  29:Generated_Source\PSoC5/SPIM_1.c ****     volatile uint8 SPIM_1_rxBufferFull;
  30:Generated_Source\PSoC5/SPIM_1.c ****     volatile uint8 SPIM_1_rxBufferRead;
ARM GAS  C:\Users\pajoh\AppData\Local\Temp\ccABZ0A6.s 			page 2


  31:Generated_Source\PSoC5/SPIM_1.c ****     volatile uint8 SPIM_1_rxBufferWrite;
  32:Generated_Source\PSoC5/SPIM_1.c **** #endif /* (SPIM_1_RX_SOFTWARE_BUF_ENABLED) */
  33:Generated_Source\PSoC5/SPIM_1.c **** 
  34:Generated_Source\PSoC5/SPIM_1.c **** uint8 SPIM_1_initVar = 0u;
  35:Generated_Source\PSoC5/SPIM_1.c **** 
  36:Generated_Source\PSoC5/SPIM_1.c **** volatile uint8 SPIM_1_swStatusTx;
  37:Generated_Source\PSoC5/SPIM_1.c **** volatile uint8 SPIM_1_swStatusRx;
  38:Generated_Source\PSoC5/SPIM_1.c **** 
  39:Generated_Source\PSoC5/SPIM_1.c **** 
  40:Generated_Source\PSoC5/SPIM_1.c **** /*******************************************************************************
  41:Generated_Source\PSoC5/SPIM_1.c **** * Function Name: SPIM_1_Init
  42:Generated_Source\PSoC5/SPIM_1.c **** ********************************************************************************
  43:Generated_Source\PSoC5/SPIM_1.c **** *
  44:Generated_Source\PSoC5/SPIM_1.c **** * Summary:
  45:Generated_Source\PSoC5/SPIM_1.c **** *  Inits/Restores default SPIM configuration provided with customizer.
  46:Generated_Source\PSoC5/SPIM_1.c **** *
  47:Generated_Source\PSoC5/SPIM_1.c **** * Parameters:
  48:Generated_Source\PSoC5/SPIM_1.c **** *  None.
  49:Generated_Source\PSoC5/SPIM_1.c **** *
  50:Generated_Source\PSoC5/SPIM_1.c **** * Return:
  51:Generated_Source\PSoC5/SPIM_1.c **** *  None.
  52:Generated_Source\PSoC5/SPIM_1.c **** *
  53:Generated_Source\PSoC5/SPIM_1.c **** * Side Effects:
  54:Generated_Source\PSoC5/SPIM_1.c **** *  When this function is called it initializes all of the necessary parameters
  55:Generated_Source\PSoC5/SPIM_1.c **** *  for execution. i.e. setting the initial interrupt mask, configuring the
  56:Generated_Source\PSoC5/SPIM_1.c **** *  interrupt service routine, configuring the bit-counter parameters and
  57:Generated_Source\PSoC5/SPIM_1.c **** *  clearing the FIFO and Status Register.
  58:Generated_Source\PSoC5/SPIM_1.c **** *
  59:Generated_Source\PSoC5/SPIM_1.c **** * Reentrant:
  60:Generated_Source\PSoC5/SPIM_1.c **** *  No.
  61:Generated_Source\PSoC5/SPIM_1.c **** *
  62:Generated_Source\PSoC5/SPIM_1.c **** *******************************************************************************/
  63:Generated_Source\PSoC5/SPIM_1.c **** void SPIM_1_Init(void) 
  64:Generated_Source\PSoC5/SPIM_1.c **** {
  65:Generated_Source\PSoC5/SPIM_1.c ****     /* Initialize the Bit counter */
  66:Generated_Source\PSoC5/SPIM_1.c ****     SPIM_1_COUNTER_PERIOD_REG = SPIM_1_BITCTR_INIT;
  67:Generated_Source\PSoC5/SPIM_1.c **** 
  68:Generated_Source\PSoC5/SPIM_1.c ****     /* Init TX ISR  */
  69:Generated_Source\PSoC5/SPIM_1.c ****     #if(0u != SPIM_1_INTERNAL_TX_INT_ENABLED)
  70:Generated_Source\PSoC5/SPIM_1.c ****         CyIntDisable         (SPIM_1_TX_ISR_NUMBER);
  71:Generated_Source\PSoC5/SPIM_1.c ****         CyIntSetPriority     (SPIM_1_TX_ISR_NUMBER,  SPIM_1_TX_ISR_PRIORITY);
  72:Generated_Source\PSoC5/SPIM_1.c ****         (void) CyIntSetVector(SPIM_1_TX_ISR_NUMBER, &SPIM_1_TX_ISR);
  73:Generated_Source\PSoC5/SPIM_1.c ****     #endif /* (0u != SPIM_1_INTERNAL_TX_INT_ENABLED) */
  74:Generated_Source\PSoC5/SPIM_1.c **** 
  75:Generated_Source\PSoC5/SPIM_1.c ****     /* Init RX ISR  */
  76:Generated_Source\PSoC5/SPIM_1.c ****     #if(0u != SPIM_1_INTERNAL_RX_INT_ENABLED)
  77:Generated_Source\PSoC5/SPIM_1.c ****         CyIntDisable         (SPIM_1_RX_ISR_NUMBER);
  78:Generated_Source\PSoC5/SPIM_1.c ****         CyIntSetPriority     (SPIM_1_RX_ISR_NUMBER,  SPIM_1_RX_ISR_PRIORITY);
  79:Generated_Source\PSoC5/SPIM_1.c ****         (void) CyIntSetVector(SPIM_1_RX_ISR_NUMBER, &SPIM_1_RX_ISR);
  80:Generated_Source\PSoC5/SPIM_1.c ****     #endif /* (0u != SPIM_1_INTERNAL_RX_INT_ENABLED) */
  81:Generated_Source\PSoC5/SPIM_1.c **** 
  82:Generated_Source\PSoC5/SPIM_1.c ****     /* Clear any stray data from the RX and TX FIFO */
  83:Generated_Source\PSoC5/SPIM_1.c ****     SPIM_1_ClearFIFO();
  84:Generated_Source\PSoC5/SPIM_1.c **** 
  85:Generated_Source\PSoC5/SPIM_1.c ****     #if(SPIM_1_RX_SOFTWARE_BUF_ENABLED)
  86:Generated_Source\PSoC5/SPIM_1.c ****         SPIM_1_rxBufferFull  = 0u;
  87:Generated_Source\PSoC5/SPIM_1.c ****         SPIM_1_rxBufferRead  = 0u;
ARM GAS  C:\Users\pajoh\AppData\Local\Temp\ccABZ0A6.s 			page 3


  88:Generated_Source\PSoC5/SPIM_1.c ****         SPIM_1_rxBufferWrite = 0u;
  89:Generated_Source\PSoC5/SPIM_1.c ****     #endif /* (SPIM_1_RX_SOFTWARE_BUF_ENABLED) */
  90:Generated_Source\PSoC5/SPIM_1.c **** 
  91:Generated_Source\PSoC5/SPIM_1.c ****     #if(SPIM_1_TX_SOFTWARE_BUF_ENABLED)
  92:Generated_Source\PSoC5/SPIM_1.c ****         SPIM_1_txBufferFull  = 0u;
  93:Generated_Source\PSoC5/SPIM_1.c ****         SPIM_1_txBufferRead  = 0u;
  94:Generated_Source\PSoC5/SPIM_1.c ****         SPIM_1_txBufferWrite = 0u;
  95:Generated_Source\PSoC5/SPIM_1.c ****     #endif /* (SPIM_1_TX_SOFTWARE_BUF_ENABLED) */
  96:Generated_Source\PSoC5/SPIM_1.c **** 
  97:Generated_Source\PSoC5/SPIM_1.c ****     (void) SPIM_1_ReadTxStatus(); /* Clear Tx status and swStatusTx */
  98:Generated_Source\PSoC5/SPIM_1.c ****     (void) SPIM_1_ReadRxStatus(); /* Clear Rx status and swStatusRx */
  99:Generated_Source\PSoC5/SPIM_1.c **** 
 100:Generated_Source\PSoC5/SPIM_1.c ****     /* Configure TX and RX interrupt mask */
 101:Generated_Source\PSoC5/SPIM_1.c ****     SPIM_1_TX_STATUS_MASK_REG = SPIM_1_TX_INIT_INTERRUPTS_MASK;
 102:Generated_Source\PSoC5/SPIM_1.c ****     SPIM_1_RX_STATUS_MASK_REG = SPIM_1_RX_INIT_INTERRUPTS_MASK;
 103:Generated_Source\PSoC5/SPIM_1.c **** }
 104:Generated_Source\PSoC5/SPIM_1.c **** 
 105:Generated_Source\PSoC5/SPIM_1.c **** 
 106:Generated_Source\PSoC5/SPIM_1.c **** /*******************************************************************************
 107:Generated_Source\PSoC5/SPIM_1.c **** * Function Name: SPIM_1_Enable
 108:Generated_Source\PSoC5/SPIM_1.c **** ********************************************************************************
 109:Generated_Source\PSoC5/SPIM_1.c **** *
 110:Generated_Source\PSoC5/SPIM_1.c **** * Summary:
 111:Generated_Source\PSoC5/SPIM_1.c **** *  Enable SPIM component.
 112:Generated_Source\PSoC5/SPIM_1.c **** *
 113:Generated_Source\PSoC5/SPIM_1.c **** * Parameters:
 114:Generated_Source\PSoC5/SPIM_1.c **** *  None.
 115:Generated_Source\PSoC5/SPIM_1.c **** *
 116:Generated_Source\PSoC5/SPIM_1.c **** * Return:
 117:Generated_Source\PSoC5/SPIM_1.c **** *  None.
 118:Generated_Source\PSoC5/SPIM_1.c **** *
 119:Generated_Source\PSoC5/SPIM_1.c **** *******************************************************************************/
 120:Generated_Source\PSoC5/SPIM_1.c **** void SPIM_1_Enable(void) 
 121:Generated_Source\PSoC5/SPIM_1.c **** {
  28              		.loc 1 121 0
  29              		.cfi_startproc
  30              		@ args = 0, pretend = 0, frame = 0
  31              		@ frame_needed = 0, uses_anonymous_args = 0
  32 0000 08B5     		push	{r3, lr}
  33              		.cfi_def_cfa_offset 8
  34              		.cfi_offset 3, -8
  35              		.cfi_offset 14, -4
 122:Generated_Source\PSoC5/SPIM_1.c ****     uint8 enableInterrupts;
 123:Generated_Source\PSoC5/SPIM_1.c **** 
 124:Generated_Source\PSoC5/SPIM_1.c ****     enableInterrupts = CyEnterCriticalSection();
  36              		.loc 1 124 0
  37 0002 FFF7FEFF 		bl	CyEnterCriticalSection
  38              	.LVL0:
 125:Generated_Source\PSoC5/SPIM_1.c ****     SPIM_1_COUNTER_CONTROL_REG |= SPIM_1_CNTR_ENABLE;
  39              		.loc 1 125 0
  40 0006 094A     		ldr	r2, .L3
  41 0008 1378     		ldrb	r3, [r2]	@ zero_extendqisi2
  42 000a 43F02003 		orr	r3, r3, #32
  43 000e 1370     		strb	r3, [r2]
 126:Generated_Source\PSoC5/SPIM_1.c ****     SPIM_1_TX_STATUS_ACTL_REG  |= SPIM_1_INT_ENABLE;
  44              		.loc 1 126 0
  45 0010 0132     		adds	r2, r2, #1
ARM GAS  C:\Users\pajoh\AppData\Local\Temp\ccABZ0A6.s 			page 4


  46 0012 1378     		ldrb	r3, [r2]	@ zero_extendqisi2
  47 0014 43F01003 		orr	r3, r3, #16
  48 0018 1370     		strb	r3, [r2]
 127:Generated_Source\PSoC5/SPIM_1.c ****     SPIM_1_RX_STATUS_ACTL_REG  |= SPIM_1_INT_ENABLE;
  49              		.loc 1 127 0
  50 001a 02F58072 		add	r2, r2, #256
  51 001e 1378     		ldrb	r3, [r2]	@ zero_extendqisi2
  52 0020 43F01003 		orr	r3, r3, #16
  53 0024 1370     		strb	r3, [r2]
 128:Generated_Source\PSoC5/SPIM_1.c ****     CyExitCriticalSection(enableInterrupts);
  54              		.loc 1 128 0
  55 0026 FFF7FEFF 		bl	CyExitCriticalSection
  56              	.LVL1:
  57 002a 08BD     		pop	{r3, pc}
  58              	.L4:
  59              		.align	2
  60              	.L3:
  61 002c 99640040 		.word	1073767577
  62              		.cfi_endproc
  63              	.LFE1:
  64              		.size	SPIM_1_Enable, .-SPIM_1_Enable
  65              		.section	.text.SPIM_1_Stop,"ax",%progbits
  66              		.align	2
  67              		.global	SPIM_1_Stop
  68              		.thumb
  69              		.thumb_func
  70              		.type	SPIM_1_Stop, %function
  71              	SPIM_1_Stop:
  72              	.LFB3:
 129:Generated_Source\PSoC5/SPIM_1.c **** 
 130:Generated_Source\PSoC5/SPIM_1.c ****     #if(0u != SPIM_1_INTERNAL_CLOCK)
 131:Generated_Source\PSoC5/SPIM_1.c ****         SPIM_1_IntClock_Enable();
 132:Generated_Source\PSoC5/SPIM_1.c ****     #endif /* (0u != SPIM_1_INTERNAL_CLOCK) */
 133:Generated_Source\PSoC5/SPIM_1.c **** 
 134:Generated_Source\PSoC5/SPIM_1.c ****     SPIM_1_EnableTxInt();
 135:Generated_Source\PSoC5/SPIM_1.c ****     SPIM_1_EnableRxInt();
 136:Generated_Source\PSoC5/SPIM_1.c **** }
 137:Generated_Source\PSoC5/SPIM_1.c **** 
 138:Generated_Source\PSoC5/SPIM_1.c **** 
 139:Generated_Source\PSoC5/SPIM_1.c **** /*******************************************************************************
 140:Generated_Source\PSoC5/SPIM_1.c **** * Function Name: SPIM_1_Start
 141:Generated_Source\PSoC5/SPIM_1.c **** ********************************************************************************
 142:Generated_Source\PSoC5/SPIM_1.c **** *
 143:Generated_Source\PSoC5/SPIM_1.c **** * Summary:
 144:Generated_Source\PSoC5/SPIM_1.c **** *  Initialize and Enable the SPI Master component.
 145:Generated_Source\PSoC5/SPIM_1.c **** *
 146:Generated_Source\PSoC5/SPIM_1.c **** * Parameters:
 147:Generated_Source\PSoC5/SPIM_1.c **** *  None.
 148:Generated_Source\PSoC5/SPIM_1.c **** *
 149:Generated_Source\PSoC5/SPIM_1.c **** * Return:
 150:Generated_Source\PSoC5/SPIM_1.c **** *  None.
 151:Generated_Source\PSoC5/SPIM_1.c **** *
 152:Generated_Source\PSoC5/SPIM_1.c **** * Global variables:
 153:Generated_Source\PSoC5/SPIM_1.c **** *  SPIM_1_initVar - used to check initial configuration, modified on
 154:Generated_Source\PSoC5/SPIM_1.c **** *  first function call.
 155:Generated_Source\PSoC5/SPIM_1.c **** *
 156:Generated_Source\PSoC5/SPIM_1.c **** * Theory:
ARM GAS  C:\Users\pajoh\AppData\Local\Temp\ccABZ0A6.s 			page 5


 157:Generated_Source\PSoC5/SPIM_1.c **** *  Enable the clock input to enable operation.
 158:Generated_Source\PSoC5/SPIM_1.c **** *
 159:Generated_Source\PSoC5/SPIM_1.c **** * Reentrant:
 160:Generated_Source\PSoC5/SPIM_1.c **** *  No.
 161:Generated_Source\PSoC5/SPIM_1.c **** *
 162:Generated_Source\PSoC5/SPIM_1.c **** *******************************************************************************/
 163:Generated_Source\PSoC5/SPIM_1.c **** void SPIM_1_Start(void) 
 164:Generated_Source\PSoC5/SPIM_1.c **** {
 165:Generated_Source\PSoC5/SPIM_1.c ****     if(0u == SPIM_1_initVar)
 166:Generated_Source\PSoC5/SPIM_1.c ****     {
 167:Generated_Source\PSoC5/SPIM_1.c ****         SPIM_1_Init();
 168:Generated_Source\PSoC5/SPIM_1.c ****         SPIM_1_initVar = 1u;
 169:Generated_Source\PSoC5/SPIM_1.c ****     }
 170:Generated_Source\PSoC5/SPIM_1.c **** 
 171:Generated_Source\PSoC5/SPIM_1.c ****     SPIM_1_Enable();
 172:Generated_Source\PSoC5/SPIM_1.c **** }
 173:Generated_Source\PSoC5/SPIM_1.c **** 
 174:Generated_Source\PSoC5/SPIM_1.c **** 
 175:Generated_Source\PSoC5/SPIM_1.c **** /*******************************************************************************
 176:Generated_Source\PSoC5/SPIM_1.c **** * Function Name: SPIM_1_Stop
 177:Generated_Source\PSoC5/SPIM_1.c **** ********************************************************************************
 178:Generated_Source\PSoC5/SPIM_1.c **** *
 179:Generated_Source\PSoC5/SPIM_1.c **** * Summary:
 180:Generated_Source\PSoC5/SPIM_1.c **** *  Disable the SPI Master component.
 181:Generated_Source\PSoC5/SPIM_1.c **** *
 182:Generated_Source\PSoC5/SPIM_1.c **** * Parameters:
 183:Generated_Source\PSoC5/SPIM_1.c **** *  None.
 184:Generated_Source\PSoC5/SPIM_1.c **** *
 185:Generated_Source\PSoC5/SPIM_1.c **** * Return:
 186:Generated_Source\PSoC5/SPIM_1.c **** *  None.
 187:Generated_Source\PSoC5/SPIM_1.c **** *
 188:Generated_Source\PSoC5/SPIM_1.c **** * Theory:
 189:Generated_Source\PSoC5/SPIM_1.c **** *  Disable the clock input to enable operation.
 190:Generated_Source\PSoC5/SPIM_1.c **** *
 191:Generated_Source\PSoC5/SPIM_1.c **** *******************************************************************************/
 192:Generated_Source\PSoC5/SPIM_1.c **** void SPIM_1_Stop(void) 
 193:Generated_Source\PSoC5/SPIM_1.c **** {
  73              		.loc 1 193 0
  74              		.cfi_startproc
  75              		@ args = 0, pretend = 0, frame = 0
  76              		@ frame_needed = 0, uses_anonymous_args = 0
  77 0000 08B5     		push	{r3, lr}
  78              		.cfi_def_cfa_offset 8
  79              		.cfi_offset 3, -8
  80              		.cfi_offset 14, -4
 194:Generated_Source\PSoC5/SPIM_1.c ****     uint8 enableInterrupts;
 195:Generated_Source\PSoC5/SPIM_1.c **** 
 196:Generated_Source\PSoC5/SPIM_1.c ****     enableInterrupts = CyEnterCriticalSection();
  81              		.loc 1 196 0
  82 0002 FFF7FEFF 		bl	CyEnterCriticalSection
  83              	.LVL2:
 197:Generated_Source\PSoC5/SPIM_1.c ****     SPIM_1_TX_STATUS_ACTL_REG &= ((uint8) ~SPIM_1_INT_ENABLE);
  84              		.loc 1 197 0
  85 0006 074A     		ldr	r2, .L7
  86 0008 1378     		ldrb	r3, [r2]	@ zero_extendqisi2
  87 000a 03F0EF03 		and	r3, r3, #239
  88 000e 1370     		strb	r3, [r2]
ARM GAS  C:\Users\pajoh\AppData\Local\Temp\ccABZ0A6.s 			page 6


 198:Generated_Source\PSoC5/SPIM_1.c ****     SPIM_1_RX_STATUS_ACTL_REG &= ((uint8) ~SPIM_1_INT_ENABLE);
  89              		.loc 1 198 0
  90 0010 02F58072 		add	r2, r2, #256
  91 0014 1378     		ldrb	r3, [r2]	@ zero_extendqisi2
  92 0016 03F0EF03 		and	r3, r3, #239
  93 001a 1370     		strb	r3, [r2]
 199:Generated_Source\PSoC5/SPIM_1.c ****     CyExitCriticalSection(enableInterrupts);
  94              		.loc 1 199 0
  95 001c FFF7FEFF 		bl	CyExitCriticalSection
  96              	.LVL3:
  97 0020 08BD     		pop	{r3, pc}
  98              	.L8:
  99 0022 00BF     		.align	2
 100              	.L7:
 101 0024 9A640040 		.word	1073767578
 102              		.cfi_endproc
 103              	.LFE3:
 104              		.size	SPIM_1_Stop, .-SPIM_1_Stop
 105              		.section	.text.SPIM_1_EnableTxInt,"ax",%progbits
 106              		.align	2
 107              		.global	SPIM_1_EnableTxInt
 108              		.thumb
 109              		.thumb_func
 110              		.type	SPIM_1_EnableTxInt, %function
 111              	SPIM_1_EnableTxInt:
 112              	.LFB4:
 200:Generated_Source\PSoC5/SPIM_1.c **** 
 201:Generated_Source\PSoC5/SPIM_1.c ****     #if(0u != SPIM_1_INTERNAL_CLOCK)
 202:Generated_Source\PSoC5/SPIM_1.c ****         SPIM_1_IntClock_Disable();
 203:Generated_Source\PSoC5/SPIM_1.c ****     #endif /* (0u != SPIM_1_INTERNAL_CLOCK) */
 204:Generated_Source\PSoC5/SPIM_1.c **** 
 205:Generated_Source\PSoC5/SPIM_1.c ****     SPIM_1_DisableTxInt();
 206:Generated_Source\PSoC5/SPIM_1.c ****     SPIM_1_DisableRxInt();
 207:Generated_Source\PSoC5/SPIM_1.c **** }
 208:Generated_Source\PSoC5/SPIM_1.c **** 
 209:Generated_Source\PSoC5/SPIM_1.c **** 
 210:Generated_Source\PSoC5/SPIM_1.c **** /*******************************************************************************
 211:Generated_Source\PSoC5/SPIM_1.c **** * Function Name: SPIM_1_EnableTxInt
 212:Generated_Source\PSoC5/SPIM_1.c **** ********************************************************************************
 213:Generated_Source\PSoC5/SPIM_1.c **** *
 214:Generated_Source\PSoC5/SPIM_1.c **** * Summary:
 215:Generated_Source\PSoC5/SPIM_1.c **** *  Enable internal Tx interrupt generation.
 216:Generated_Source\PSoC5/SPIM_1.c **** *
 217:Generated_Source\PSoC5/SPIM_1.c **** * Parameters:
 218:Generated_Source\PSoC5/SPIM_1.c **** *  None.
 219:Generated_Source\PSoC5/SPIM_1.c **** *
 220:Generated_Source\PSoC5/SPIM_1.c **** * Return:
 221:Generated_Source\PSoC5/SPIM_1.c **** *  None.
 222:Generated_Source\PSoC5/SPIM_1.c **** *
 223:Generated_Source\PSoC5/SPIM_1.c **** * Theory:
 224:Generated_Source\PSoC5/SPIM_1.c **** *  Enable the internal Tx interrupt output -or- the interrupt component itself.
 225:Generated_Source\PSoC5/SPIM_1.c **** *
 226:Generated_Source\PSoC5/SPIM_1.c **** *******************************************************************************/
 227:Generated_Source\PSoC5/SPIM_1.c **** void SPIM_1_EnableTxInt(void) 
 228:Generated_Source\PSoC5/SPIM_1.c **** {
 113              		.loc 1 228 0
 114              		.cfi_startproc
ARM GAS  C:\Users\pajoh\AppData\Local\Temp\ccABZ0A6.s 			page 7


 115              		@ args = 0, pretend = 0, frame = 0
 116              		@ frame_needed = 0, uses_anonymous_args = 0
 117              		@ link register save eliminated.
 118 0000 7047     		bx	lr
 119              		.cfi_endproc
 120              	.LFE4:
 121              		.size	SPIM_1_EnableTxInt, .-SPIM_1_EnableTxInt
 122 0002 00BF     		.section	.text.SPIM_1_EnableRxInt,"ax",%progbits
 123              		.align	2
 124              		.global	SPIM_1_EnableRxInt
 125              		.thumb
 126              		.thumb_func
 127              		.type	SPIM_1_EnableRxInt, %function
 128              	SPIM_1_EnableRxInt:
 129              	.LFB5:
 229:Generated_Source\PSoC5/SPIM_1.c ****     #if(0u != SPIM_1_INTERNAL_TX_INT_ENABLED)
 230:Generated_Source\PSoC5/SPIM_1.c ****         CyIntEnable(SPIM_1_TX_ISR_NUMBER);
 231:Generated_Source\PSoC5/SPIM_1.c ****     #endif /* (0u != SPIM_1_INTERNAL_TX_INT_ENABLED) */
 232:Generated_Source\PSoC5/SPIM_1.c **** }
 233:Generated_Source\PSoC5/SPIM_1.c **** 
 234:Generated_Source\PSoC5/SPIM_1.c **** 
 235:Generated_Source\PSoC5/SPIM_1.c **** /*******************************************************************************
 236:Generated_Source\PSoC5/SPIM_1.c **** * Function Name: SPIM_1_EnableRxInt
 237:Generated_Source\PSoC5/SPIM_1.c **** ********************************************************************************
 238:Generated_Source\PSoC5/SPIM_1.c **** *
 239:Generated_Source\PSoC5/SPIM_1.c **** * Summary:
 240:Generated_Source\PSoC5/SPIM_1.c **** *  Enable internal Rx interrupt generation.
 241:Generated_Source\PSoC5/SPIM_1.c **** *
 242:Generated_Source\PSoC5/SPIM_1.c **** * Parameters:
 243:Generated_Source\PSoC5/SPIM_1.c **** *  None.
 244:Generated_Source\PSoC5/SPIM_1.c **** *
 245:Generated_Source\PSoC5/SPIM_1.c **** * Return:
 246:Generated_Source\PSoC5/SPIM_1.c **** *  None.
 247:Generated_Source\PSoC5/SPIM_1.c **** *
 248:Generated_Source\PSoC5/SPIM_1.c **** * Theory:
 249:Generated_Source\PSoC5/SPIM_1.c **** *  Enable the internal Rx interrupt output -or- the interrupt component itself.
 250:Generated_Source\PSoC5/SPIM_1.c **** *
 251:Generated_Source\PSoC5/SPIM_1.c **** *******************************************************************************/
 252:Generated_Source\PSoC5/SPIM_1.c **** void SPIM_1_EnableRxInt(void) 
 253:Generated_Source\PSoC5/SPIM_1.c **** {
 130              		.loc 1 253 0
 131              		.cfi_startproc
 132              		@ args = 0, pretend = 0, frame = 0
 133              		@ frame_needed = 0, uses_anonymous_args = 0
 134              		@ link register save eliminated.
 135 0000 7047     		bx	lr
 136              		.cfi_endproc
 137              	.LFE5:
 138              		.size	SPIM_1_EnableRxInt, .-SPIM_1_EnableRxInt
 139 0002 00BF     		.section	.text.SPIM_1_DisableTxInt,"ax",%progbits
 140              		.align	2
 141              		.global	SPIM_1_DisableTxInt
 142              		.thumb
 143              		.thumb_func
 144              		.type	SPIM_1_DisableTxInt, %function
 145              	SPIM_1_DisableTxInt:
 146              	.LFB6:
ARM GAS  C:\Users\pajoh\AppData\Local\Temp\ccABZ0A6.s 			page 8


 254:Generated_Source\PSoC5/SPIM_1.c ****     #if(0u != SPIM_1_INTERNAL_RX_INT_ENABLED)
 255:Generated_Source\PSoC5/SPIM_1.c ****         CyIntEnable(SPIM_1_RX_ISR_NUMBER);
 256:Generated_Source\PSoC5/SPIM_1.c ****     #endif /* (0u != SPIM_1_INTERNAL_RX_INT_ENABLED) */
 257:Generated_Source\PSoC5/SPIM_1.c **** }
 258:Generated_Source\PSoC5/SPIM_1.c **** 
 259:Generated_Source\PSoC5/SPIM_1.c **** 
 260:Generated_Source\PSoC5/SPIM_1.c **** /*******************************************************************************
 261:Generated_Source\PSoC5/SPIM_1.c **** * Function Name: SPIM_1_DisableTxInt
 262:Generated_Source\PSoC5/SPIM_1.c **** ********************************************************************************
 263:Generated_Source\PSoC5/SPIM_1.c **** *
 264:Generated_Source\PSoC5/SPIM_1.c **** * Summary:
 265:Generated_Source\PSoC5/SPIM_1.c **** *  Disable internal Tx interrupt generation.
 266:Generated_Source\PSoC5/SPIM_1.c **** *
 267:Generated_Source\PSoC5/SPIM_1.c **** * Parameters:
 268:Generated_Source\PSoC5/SPIM_1.c **** *  None.
 269:Generated_Source\PSoC5/SPIM_1.c **** *
 270:Generated_Source\PSoC5/SPIM_1.c **** * Return:
 271:Generated_Source\PSoC5/SPIM_1.c **** *  None.
 272:Generated_Source\PSoC5/SPIM_1.c **** *
 273:Generated_Source\PSoC5/SPIM_1.c **** * Theory:
 274:Generated_Source\PSoC5/SPIM_1.c **** *  Disable the internal Tx interrupt output -or- the interrupt component itself.
 275:Generated_Source\PSoC5/SPIM_1.c **** *
 276:Generated_Source\PSoC5/SPIM_1.c **** *******************************************************************************/
 277:Generated_Source\PSoC5/SPIM_1.c **** void SPIM_1_DisableTxInt(void) 
 278:Generated_Source\PSoC5/SPIM_1.c **** {
 147              		.loc 1 278 0
 148              		.cfi_startproc
 149              		@ args = 0, pretend = 0, frame = 0
 150              		@ frame_needed = 0, uses_anonymous_args = 0
 151              		@ link register save eliminated.
 152 0000 7047     		bx	lr
 153              		.cfi_endproc
 154              	.LFE6:
 155              		.size	SPIM_1_DisableTxInt, .-SPIM_1_DisableTxInt
 156 0002 00BF     		.section	.text.SPIM_1_DisableRxInt,"ax",%progbits
 157              		.align	2
 158              		.global	SPIM_1_DisableRxInt
 159              		.thumb
 160              		.thumb_func
 161              		.type	SPIM_1_DisableRxInt, %function
 162              	SPIM_1_DisableRxInt:
 163              	.LFB7:
 279:Generated_Source\PSoC5/SPIM_1.c ****     #if(0u != SPIM_1_INTERNAL_TX_INT_ENABLED)
 280:Generated_Source\PSoC5/SPIM_1.c ****         CyIntDisable(SPIM_1_TX_ISR_NUMBER);
 281:Generated_Source\PSoC5/SPIM_1.c ****     #endif /* (0u != SPIM_1_INTERNAL_TX_INT_ENABLED) */
 282:Generated_Source\PSoC5/SPIM_1.c **** }
 283:Generated_Source\PSoC5/SPIM_1.c **** 
 284:Generated_Source\PSoC5/SPIM_1.c **** 
 285:Generated_Source\PSoC5/SPIM_1.c **** /*******************************************************************************
 286:Generated_Source\PSoC5/SPIM_1.c **** * Function Name: SPIM_1_DisableRxInt
 287:Generated_Source\PSoC5/SPIM_1.c **** ********************************************************************************
 288:Generated_Source\PSoC5/SPIM_1.c **** *
 289:Generated_Source\PSoC5/SPIM_1.c **** * Summary:
 290:Generated_Source\PSoC5/SPIM_1.c **** *  Disable internal Rx interrupt generation.
 291:Generated_Source\PSoC5/SPIM_1.c **** *
 292:Generated_Source\PSoC5/SPIM_1.c **** * Parameters:
 293:Generated_Source\PSoC5/SPIM_1.c **** *  None.
ARM GAS  C:\Users\pajoh\AppData\Local\Temp\ccABZ0A6.s 			page 9


 294:Generated_Source\PSoC5/SPIM_1.c **** *
 295:Generated_Source\PSoC5/SPIM_1.c **** * Return:
 296:Generated_Source\PSoC5/SPIM_1.c **** *  None.
 297:Generated_Source\PSoC5/SPIM_1.c **** *
 298:Generated_Source\PSoC5/SPIM_1.c **** * Theory:
 299:Generated_Source\PSoC5/SPIM_1.c **** *  Disable the internal Rx interrupt output -or- the interrupt component itself.
 300:Generated_Source\PSoC5/SPIM_1.c **** *
 301:Generated_Source\PSoC5/SPIM_1.c **** *******************************************************************************/
 302:Generated_Source\PSoC5/SPIM_1.c **** void SPIM_1_DisableRxInt(void) 
 303:Generated_Source\PSoC5/SPIM_1.c **** {
 164              		.loc 1 303 0
 165              		.cfi_startproc
 166              		@ args = 0, pretend = 0, frame = 0
 167              		@ frame_needed = 0, uses_anonymous_args = 0
 168              		@ link register save eliminated.
 169 0000 7047     		bx	lr
 170              		.cfi_endproc
 171              	.LFE7:
 172              		.size	SPIM_1_DisableRxInt, .-SPIM_1_DisableRxInt
 173 0002 00BF     		.section	.text.SPIM_1_SetTxInterruptMode,"ax",%progbits
 174              		.align	2
 175              		.global	SPIM_1_SetTxInterruptMode
 176              		.thumb
 177              		.thumb_func
 178              		.type	SPIM_1_SetTxInterruptMode, %function
 179              	SPIM_1_SetTxInterruptMode:
 180              	.LFB8:
 304:Generated_Source\PSoC5/SPIM_1.c ****     #if(0u != SPIM_1_INTERNAL_RX_INT_ENABLED)
 305:Generated_Source\PSoC5/SPIM_1.c ****         CyIntDisable(SPIM_1_RX_ISR_NUMBER);
 306:Generated_Source\PSoC5/SPIM_1.c ****     #endif /* (0u != SPIM_1_INTERNAL_RX_INT_ENABLED) */
 307:Generated_Source\PSoC5/SPIM_1.c **** }
 308:Generated_Source\PSoC5/SPIM_1.c **** 
 309:Generated_Source\PSoC5/SPIM_1.c **** 
 310:Generated_Source\PSoC5/SPIM_1.c **** /*******************************************************************************
 311:Generated_Source\PSoC5/SPIM_1.c **** * Function Name: SPIM_1_SetTxInterruptMode
 312:Generated_Source\PSoC5/SPIM_1.c **** ********************************************************************************
 313:Generated_Source\PSoC5/SPIM_1.c **** *
 314:Generated_Source\PSoC5/SPIM_1.c **** * Summary:
 315:Generated_Source\PSoC5/SPIM_1.c **** *  Configure which status bits trigger an interrupt event.
 316:Generated_Source\PSoC5/SPIM_1.c **** *
 317:Generated_Source\PSoC5/SPIM_1.c **** * Parameters:
 318:Generated_Source\PSoC5/SPIM_1.c **** *  intSrc: An or'd combination of the desired status bit masks (defined in the
 319:Generated_Source\PSoC5/SPIM_1.c **** *  header file).
 320:Generated_Source\PSoC5/SPIM_1.c **** *
 321:Generated_Source\PSoC5/SPIM_1.c **** * Return:
 322:Generated_Source\PSoC5/SPIM_1.c **** *  None.
 323:Generated_Source\PSoC5/SPIM_1.c **** *
 324:Generated_Source\PSoC5/SPIM_1.c **** * Theory:
 325:Generated_Source\PSoC5/SPIM_1.c **** *  Enables the output of specific status bits to the interrupt controller.
 326:Generated_Source\PSoC5/SPIM_1.c **** *
 327:Generated_Source\PSoC5/SPIM_1.c **** *******************************************************************************/
 328:Generated_Source\PSoC5/SPIM_1.c **** void SPIM_1_SetTxInterruptMode(uint8 intSrc) 
 329:Generated_Source\PSoC5/SPIM_1.c **** {
 181              		.loc 1 329 0
 182              		.cfi_startproc
 183              		@ args = 0, pretend = 0, frame = 0
 184              		@ frame_needed = 0, uses_anonymous_args = 0
ARM GAS  C:\Users\pajoh\AppData\Local\Temp\ccABZ0A6.s 			page 10


 185              		@ link register save eliminated.
 186              	.LVL4:
 330:Generated_Source\PSoC5/SPIM_1.c ****     SPIM_1_TX_STATUS_MASK_REG = intSrc;
 187              		.loc 1 330 0
 188 0000 014B     		ldr	r3, .L14
 189 0002 1870     		strb	r0, [r3]
 190 0004 7047     		bx	lr
 191              	.L15:
 192 0006 00BF     		.align	2
 193              	.L14:
 194 0008 8A640040 		.word	1073767562
 195              		.cfi_endproc
 196              	.LFE8:
 197              		.size	SPIM_1_SetTxInterruptMode, .-SPIM_1_SetTxInterruptMode
 198              		.section	.text.SPIM_1_SetRxInterruptMode,"ax",%progbits
 199              		.align	2
 200              		.global	SPIM_1_SetRxInterruptMode
 201              		.thumb
 202              		.thumb_func
 203              		.type	SPIM_1_SetRxInterruptMode, %function
 204              	SPIM_1_SetRxInterruptMode:
 205              	.LFB9:
 331:Generated_Source\PSoC5/SPIM_1.c **** }
 332:Generated_Source\PSoC5/SPIM_1.c **** 
 333:Generated_Source\PSoC5/SPIM_1.c **** 
 334:Generated_Source\PSoC5/SPIM_1.c **** /*******************************************************************************
 335:Generated_Source\PSoC5/SPIM_1.c **** * Function Name: SPIM_1_SetRxInterruptMode
 336:Generated_Source\PSoC5/SPIM_1.c **** ********************************************************************************
 337:Generated_Source\PSoC5/SPIM_1.c **** *
 338:Generated_Source\PSoC5/SPIM_1.c **** * Summary:
 339:Generated_Source\PSoC5/SPIM_1.c **** *  Configure which status bits trigger an interrupt event.
 340:Generated_Source\PSoC5/SPIM_1.c **** *
 341:Generated_Source\PSoC5/SPIM_1.c **** * Parameters:
 342:Generated_Source\PSoC5/SPIM_1.c **** *  intSrc: An or'd combination of the desired status bit masks (defined in the
 343:Generated_Source\PSoC5/SPIM_1.c **** *  header file).
 344:Generated_Source\PSoC5/SPIM_1.c **** *
 345:Generated_Source\PSoC5/SPIM_1.c **** * Return:
 346:Generated_Source\PSoC5/SPIM_1.c **** *  None.
 347:Generated_Source\PSoC5/SPIM_1.c **** *
 348:Generated_Source\PSoC5/SPIM_1.c **** * Theory:
 349:Generated_Source\PSoC5/SPIM_1.c **** *  Enables the output of specific status bits to the interrupt controller.
 350:Generated_Source\PSoC5/SPIM_1.c **** *
 351:Generated_Source\PSoC5/SPIM_1.c **** *******************************************************************************/
 352:Generated_Source\PSoC5/SPIM_1.c **** void SPIM_1_SetRxInterruptMode(uint8 intSrc) 
 353:Generated_Source\PSoC5/SPIM_1.c **** {
 206              		.loc 1 353 0
 207              		.cfi_startproc
 208              		@ args = 0, pretend = 0, frame = 0
 209              		@ frame_needed = 0, uses_anonymous_args = 0
 210              		@ link register save eliminated.
 211              	.LVL5:
 354:Generated_Source\PSoC5/SPIM_1.c ****     SPIM_1_RX_STATUS_MASK_REG  = intSrc;
 212              		.loc 1 354 0
 213 0000 014B     		ldr	r3, .L17
 214 0002 1870     		strb	r0, [r3]
 215 0004 7047     		bx	lr
 216              	.L18:
ARM GAS  C:\Users\pajoh\AppData\Local\Temp\ccABZ0A6.s 			page 11


 217 0006 00BF     		.align	2
 218              	.L17:
 219 0008 8A650040 		.word	1073767818
 220              		.cfi_endproc
 221              	.LFE9:
 222              		.size	SPIM_1_SetRxInterruptMode, .-SPIM_1_SetRxInterruptMode
 223              		.section	.text.SPIM_1_ReadTxStatus,"ax",%progbits
 224              		.align	2
 225              		.global	SPIM_1_ReadTxStatus
 226              		.thumb
 227              		.thumb_func
 228              		.type	SPIM_1_ReadTxStatus, %function
 229              	SPIM_1_ReadTxStatus:
 230              	.LFB10:
 355:Generated_Source\PSoC5/SPIM_1.c **** }
 356:Generated_Source\PSoC5/SPIM_1.c **** 
 357:Generated_Source\PSoC5/SPIM_1.c **** 
 358:Generated_Source\PSoC5/SPIM_1.c **** /*******************************************************************************
 359:Generated_Source\PSoC5/SPIM_1.c **** * Function Name: SPIM_1_ReadTxStatus
 360:Generated_Source\PSoC5/SPIM_1.c **** ********************************************************************************
 361:Generated_Source\PSoC5/SPIM_1.c **** *
 362:Generated_Source\PSoC5/SPIM_1.c **** * Summary:
 363:Generated_Source\PSoC5/SPIM_1.c **** *  Read the Tx status register for the component.
 364:Generated_Source\PSoC5/SPIM_1.c **** *
 365:Generated_Source\PSoC5/SPIM_1.c **** * Parameters:
 366:Generated_Source\PSoC5/SPIM_1.c **** *  None.
 367:Generated_Source\PSoC5/SPIM_1.c **** *
 368:Generated_Source\PSoC5/SPIM_1.c **** * Return:
 369:Generated_Source\PSoC5/SPIM_1.c **** *  Contents of the Tx status register.
 370:Generated_Source\PSoC5/SPIM_1.c **** *
 371:Generated_Source\PSoC5/SPIM_1.c **** * Global variables:
 372:Generated_Source\PSoC5/SPIM_1.c **** *  SPIM_1_swStatusTx - used to store in software status register,
 373:Generated_Source\PSoC5/SPIM_1.c **** *  modified every function call - resets to zero.
 374:Generated_Source\PSoC5/SPIM_1.c **** *
 375:Generated_Source\PSoC5/SPIM_1.c **** * Theory:
 376:Generated_Source\PSoC5/SPIM_1.c **** *  Allows the user and the API to read the Tx status register for error
 377:Generated_Source\PSoC5/SPIM_1.c **** *  detection and flow control.
 378:Generated_Source\PSoC5/SPIM_1.c **** *
 379:Generated_Source\PSoC5/SPIM_1.c **** * Side Effects:
 380:Generated_Source\PSoC5/SPIM_1.c **** *  Clear Tx status register of the component.
 381:Generated_Source\PSoC5/SPIM_1.c **** *
 382:Generated_Source\PSoC5/SPIM_1.c **** * Reentrant:
 383:Generated_Source\PSoC5/SPIM_1.c **** *  No.
 384:Generated_Source\PSoC5/SPIM_1.c **** *
 385:Generated_Source\PSoC5/SPIM_1.c **** *******************************************************************************/
 386:Generated_Source\PSoC5/SPIM_1.c **** uint8 SPIM_1_ReadTxStatus(void) 
 387:Generated_Source\PSoC5/SPIM_1.c **** {
 231              		.loc 1 387 0
 232              		.cfi_startproc
 233              		@ args = 0, pretend = 0, frame = 0
 234              		@ frame_needed = 0, uses_anonymous_args = 0
 235              		@ link register save eliminated.
 388:Generated_Source\PSoC5/SPIM_1.c ****     uint8 tmpStatus;
 389:Generated_Source\PSoC5/SPIM_1.c **** 
 390:Generated_Source\PSoC5/SPIM_1.c ****     #if(SPIM_1_TX_SOFTWARE_BUF_ENABLED)
 391:Generated_Source\PSoC5/SPIM_1.c ****         /* Disable TX interrupt to protect global veriables */
 392:Generated_Source\PSoC5/SPIM_1.c ****         SPIM_1_DisableTxInt();
ARM GAS  C:\Users\pajoh\AppData\Local\Temp\ccABZ0A6.s 			page 12


 393:Generated_Source\PSoC5/SPIM_1.c **** 
 394:Generated_Source\PSoC5/SPIM_1.c ****         tmpStatus = SPIM_1_GET_STATUS_TX(SPIM_1_swStatusTx);
 395:Generated_Source\PSoC5/SPIM_1.c ****         SPIM_1_swStatusTx = 0u;
 396:Generated_Source\PSoC5/SPIM_1.c **** 
 397:Generated_Source\PSoC5/SPIM_1.c ****         SPIM_1_EnableTxInt();
 398:Generated_Source\PSoC5/SPIM_1.c **** 
 399:Generated_Source\PSoC5/SPIM_1.c ****     #else
 400:Generated_Source\PSoC5/SPIM_1.c **** 
 401:Generated_Source\PSoC5/SPIM_1.c ****         tmpStatus = SPIM_1_TX_STATUS_REG;
 236              		.loc 1 401 0
 237 0000 014B     		ldr	r3, .L20
 238 0002 1878     		ldrb	r0, [r3]	@ zero_extendqisi2
 239              	.LVL6:
 402:Generated_Source\PSoC5/SPIM_1.c **** 
 403:Generated_Source\PSoC5/SPIM_1.c ****     #endif /* (SPIM_1_TX_SOFTWARE_BUF_ENABLED) */
 404:Generated_Source\PSoC5/SPIM_1.c **** 
 405:Generated_Source\PSoC5/SPIM_1.c ****     return(tmpStatus);
 406:Generated_Source\PSoC5/SPIM_1.c **** }
 240              		.loc 1 406 0
 241 0004 7047     		bx	lr
 242              	.L21:
 243 0006 00BF     		.align	2
 244              	.L20:
 245 0008 6A640040 		.word	1073767530
 246              		.cfi_endproc
 247              	.LFE10:
 248              		.size	SPIM_1_ReadTxStatus, .-SPIM_1_ReadTxStatus
 249              		.section	.text.SPIM_1_ReadRxStatus,"ax",%progbits
 250              		.align	2
 251              		.global	SPIM_1_ReadRxStatus
 252              		.thumb
 253              		.thumb_func
 254              		.type	SPIM_1_ReadRxStatus, %function
 255              	SPIM_1_ReadRxStatus:
 256              	.LFB11:
 407:Generated_Source\PSoC5/SPIM_1.c **** 
 408:Generated_Source\PSoC5/SPIM_1.c **** 
 409:Generated_Source\PSoC5/SPIM_1.c **** /*******************************************************************************
 410:Generated_Source\PSoC5/SPIM_1.c **** * Function Name: SPIM_1_ReadRxStatus
 411:Generated_Source\PSoC5/SPIM_1.c **** ********************************************************************************
 412:Generated_Source\PSoC5/SPIM_1.c **** *
 413:Generated_Source\PSoC5/SPIM_1.c **** * Summary:
 414:Generated_Source\PSoC5/SPIM_1.c **** *  Read the Rx status register for the component.
 415:Generated_Source\PSoC5/SPIM_1.c **** *
 416:Generated_Source\PSoC5/SPIM_1.c **** * Parameters:
 417:Generated_Source\PSoC5/SPIM_1.c **** *  None.
 418:Generated_Source\PSoC5/SPIM_1.c **** *
 419:Generated_Source\PSoC5/SPIM_1.c **** * Return:
 420:Generated_Source\PSoC5/SPIM_1.c **** *  Contents of the Rx status register.
 421:Generated_Source\PSoC5/SPIM_1.c **** *
 422:Generated_Source\PSoC5/SPIM_1.c **** * Global variables:
 423:Generated_Source\PSoC5/SPIM_1.c **** *  SPIM_1_swStatusRx - used to store in software Rx status register,
 424:Generated_Source\PSoC5/SPIM_1.c **** *  modified every function call - resets to zero.
 425:Generated_Source\PSoC5/SPIM_1.c **** *
 426:Generated_Source\PSoC5/SPIM_1.c **** * Theory:
 427:Generated_Source\PSoC5/SPIM_1.c **** *  Allows the user and the API to read the Rx status register for error
 428:Generated_Source\PSoC5/SPIM_1.c **** *  detection and flow control.
ARM GAS  C:\Users\pajoh\AppData\Local\Temp\ccABZ0A6.s 			page 13


 429:Generated_Source\PSoC5/SPIM_1.c **** *
 430:Generated_Source\PSoC5/SPIM_1.c **** * Side Effects:
 431:Generated_Source\PSoC5/SPIM_1.c **** *  Clear Rx status register of the component.
 432:Generated_Source\PSoC5/SPIM_1.c **** *
 433:Generated_Source\PSoC5/SPIM_1.c **** * Reentrant:
 434:Generated_Source\PSoC5/SPIM_1.c **** *  No.
 435:Generated_Source\PSoC5/SPIM_1.c **** *
 436:Generated_Source\PSoC5/SPIM_1.c **** *******************************************************************************/
 437:Generated_Source\PSoC5/SPIM_1.c **** uint8 SPIM_1_ReadRxStatus(void) 
 438:Generated_Source\PSoC5/SPIM_1.c **** {
 257              		.loc 1 438 0
 258              		.cfi_startproc
 259              		@ args = 0, pretend = 0, frame = 0
 260              		@ frame_needed = 0, uses_anonymous_args = 0
 261              		@ link register save eliminated.
 439:Generated_Source\PSoC5/SPIM_1.c ****     uint8 tmpStatus;
 440:Generated_Source\PSoC5/SPIM_1.c **** 
 441:Generated_Source\PSoC5/SPIM_1.c ****     #if(SPIM_1_RX_SOFTWARE_BUF_ENABLED)
 442:Generated_Source\PSoC5/SPIM_1.c ****         /* Disable RX interrupt to protect global veriables */
 443:Generated_Source\PSoC5/SPIM_1.c ****         SPIM_1_DisableRxInt();
 444:Generated_Source\PSoC5/SPIM_1.c **** 
 445:Generated_Source\PSoC5/SPIM_1.c ****         tmpStatus = SPIM_1_GET_STATUS_RX(SPIM_1_swStatusRx);
 446:Generated_Source\PSoC5/SPIM_1.c ****         SPIM_1_swStatusRx = 0u;
 447:Generated_Source\PSoC5/SPIM_1.c **** 
 448:Generated_Source\PSoC5/SPIM_1.c ****         SPIM_1_EnableRxInt();
 449:Generated_Source\PSoC5/SPIM_1.c **** 
 450:Generated_Source\PSoC5/SPIM_1.c ****     #else
 451:Generated_Source\PSoC5/SPIM_1.c **** 
 452:Generated_Source\PSoC5/SPIM_1.c ****         tmpStatus = SPIM_1_RX_STATUS_REG;
 262              		.loc 1 452 0
 263 0000 014B     		ldr	r3, .L23
 264 0002 1878     		ldrb	r0, [r3]	@ zero_extendqisi2
 265              	.LVL7:
 453:Generated_Source\PSoC5/SPIM_1.c **** 
 454:Generated_Source\PSoC5/SPIM_1.c ****     #endif /* (SPIM_1_RX_SOFTWARE_BUF_ENABLED) */
 455:Generated_Source\PSoC5/SPIM_1.c **** 
 456:Generated_Source\PSoC5/SPIM_1.c ****     return(tmpStatus);
 457:Generated_Source\PSoC5/SPIM_1.c **** }
 266              		.loc 1 457 0
 267 0004 7047     		bx	lr
 268              	.L24:
 269 0006 00BF     		.align	2
 270              	.L23:
 271 0008 6A650040 		.word	1073767786
 272              		.cfi_endproc
 273              	.LFE11:
 274              		.size	SPIM_1_ReadRxStatus, .-SPIM_1_ReadRxStatus
 275              		.section	.text.SPIM_1_WriteTxData,"ax",%progbits
 276              		.align	2
 277              		.global	SPIM_1_WriteTxData
 278              		.thumb
 279              		.thumb_func
 280              		.type	SPIM_1_WriteTxData, %function
 281              	SPIM_1_WriteTxData:
 282              	.LFB12:
 458:Generated_Source\PSoC5/SPIM_1.c **** 
 459:Generated_Source\PSoC5/SPIM_1.c **** 
ARM GAS  C:\Users\pajoh\AppData\Local\Temp\ccABZ0A6.s 			page 14


 460:Generated_Source\PSoC5/SPIM_1.c **** /*******************************************************************************
 461:Generated_Source\PSoC5/SPIM_1.c **** * Function Name: SPIM_1_WriteTxData
 462:Generated_Source\PSoC5/SPIM_1.c **** ********************************************************************************
 463:Generated_Source\PSoC5/SPIM_1.c **** *
 464:Generated_Source\PSoC5/SPIM_1.c **** * Summary:
 465:Generated_Source\PSoC5/SPIM_1.c **** *  Write a byte of data to be sent across the SPI.
 466:Generated_Source\PSoC5/SPIM_1.c **** *
 467:Generated_Source\PSoC5/SPIM_1.c **** * Parameters:
 468:Generated_Source\PSoC5/SPIM_1.c **** *  txDataByte: The data value to send across the SPI.
 469:Generated_Source\PSoC5/SPIM_1.c **** *
 470:Generated_Source\PSoC5/SPIM_1.c **** * Return:
 471:Generated_Source\PSoC5/SPIM_1.c **** *  None.
 472:Generated_Source\PSoC5/SPIM_1.c **** *
 473:Generated_Source\PSoC5/SPIM_1.c **** * Global variables:
 474:Generated_Source\PSoC5/SPIM_1.c **** *  SPIM_1_txBufferWrite - used for the account of the bytes which
 475:Generated_Source\PSoC5/SPIM_1.c **** *  have been written down in the TX software buffer, modified every function
 476:Generated_Source\PSoC5/SPIM_1.c **** *  call if TX Software Buffer is used.
 477:Generated_Source\PSoC5/SPIM_1.c **** *  SPIM_1_txBufferRead - used for the account of the bytes which
 478:Generated_Source\PSoC5/SPIM_1.c **** *  have been read from the TX software buffer.
 479:Generated_Source\PSoC5/SPIM_1.c **** *  SPIM_1_txBuffer[SPIM_1_TX_BUFFER_SIZE] - used to store
 480:Generated_Source\PSoC5/SPIM_1.c **** *  data to sending, modified every function call if TX Software Buffer is used.
 481:Generated_Source\PSoC5/SPIM_1.c **** *
 482:Generated_Source\PSoC5/SPIM_1.c **** * Theory:
 483:Generated_Source\PSoC5/SPIM_1.c **** *  Allows the user to transmit any byte of data in a single transfer.
 484:Generated_Source\PSoC5/SPIM_1.c **** *
 485:Generated_Source\PSoC5/SPIM_1.c **** * Side Effects:
 486:Generated_Source\PSoC5/SPIM_1.c **** *  If this function is called again before the previous byte is finished then
 487:Generated_Source\PSoC5/SPIM_1.c **** *  the next byte will be appended to the transfer with no time between
 488:Generated_Source\PSoC5/SPIM_1.c **** *  the byte transfers. Clear Tx status register of the component.
 489:Generated_Source\PSoC5/SPIM_1.c **** *
 490:Generated_Source\PSoC5/SPIM_1.c **** * Reentrant:
 491:Generated_Source\PSoC5/SPIM_1.c **** *  No.
 492:Generated_Source\PSoC5/SPIM_1.c **** *
 493:Generated_Source\PSoC5/SPIM_1.c **** *******************************************************************************/
 494:Generated_Source\PSoC5/SPIM_1.c **** void SPIM_1_WriteTxData(uint8 txData) 
 495:Generated_Source\PSoC5/SPIM_1.c **** {
 283              		.loc 1 495 0
 284              		.cfi_startproc
 285              		@ args = 0, pretend = 0, frame = 0
 286              		@ frame_needed = 0, uses_anonymous_args = 0
 287              		@ link register save eliminated.
 288              	.LVL8:
 289              	.L26:
 496:Generated_Source\PSoC5/SPIM_1.c ****     #if(SPIM_1_TX_SOFTWARE_BUF_ENABLED)
 497:Generated_Source\PSoC5/SPIM_1.c **** 
 498:Generated_Source\PSoC5/SPIM_1.c ****         uint8 tempStatus;
 499:Generated_Source\PSoC5/SPIM_1.c ****         uint8 tmpTxBufferRead;
 500:Generated_Source\PSoC5/SPIM_1.c **** 
 501:Generated_Source\PSoC5/SPIM_1.c ****         /* Block if TX buffer is FULL: don't overwrite */
 502:Generated_Source\PSoC5/SPIM_1.c ****         do
 503:Generated_Source\PSoC5/SPIM_1.c ****         {
 504:Generated_Source\PSoC5/SPIM_1.c ****             tmpTxBufferRead = SPIM_1_txBufferRead;
 505:Generated_Source\PSoC5/SPIM_1.c ****             if(0u == tmpTxBufferRead)
 506:Generated_Source\PSoC5/SPIM_1.c ****             {
 507:Generated_Source\PSoC5/SPIM_1.c ****                 tmpTxBufferRead = (SPIM_1_TX_BUFFER_SIZE - 1u);
 508:Generated_Source\PSoC5/SPIM_1.c ****             }
 509:Generated_Source\PSoC5/SPIM_1.c ****             else
ARM GAS  C:\Users\pajoh\AppData\Local\Temp\ccABZ0A6.s 			page 15


 510:Generated_Source\PSoC5/SPIM_1.c ****             {
 511:Generated_Source\PSoC5/SPIM_1.c ****                 tmpTxBufferRead--;
 512:Generated_Source\PSoC5/SPIM_1.c ****             }
 513:Generated_Source\PSoC5/SPIM_1.c **** 
 514:Generated_Source\PSoC5/SPIM_1.c ****         }while(tmpTxBufferRead == SPIM_1_txBufferWrite);
 515:Generated_Source\PSoC5/SPIM_1.c **** 
 516:Generated_Source\PSoC5/SPIM_1.c ****         /* Disable TX interrupt to protect global veriables */
 517:Generated_Source\PSoC5/SPIM_1.c ****         SPIM_1_DisableTxInt();
 518:Generated_Source\PSoC5/SPIM_1.c **** 
 519:Generated_Source\PSoC5/SPIM_1.c ****         tempStatus = SPIM_1_GET_STATUS_TX(SPIM_1_swStatusTx);
 520:Generated_Source\PSoC5/SPIM_1.c ****         SPIM_1_swStatusTx = tempStatus;
 521:Generated_Source\PSoC5/SPIM_1.c **** 
 522:Generated_Source\PSoC5/SPIM_1.c **** 
 523:Generated_Source\PSoC5/SPIM_1.c ****         if((SPIM_1_txBufferRead == SPIM_1_txBufferWrite) &&
 524:Generated_Source\PSoC5/SPIM_1.c ****            (0u != (SPIM_1_swStatusTx & SPIM_1_STS_TX_FIFO_NOT_FULL)))
 525:Generated_Source\PSoC5/SPIM_1.c ****         {
 526:Generated_Source\PSoC5/SPIM_1.c ****             /* Put data element into the TX FIFO */
 527:Generated_Source\PSoC5/SPIM_1.c ****             CY_SET_REG8(SPIM_1_TXDATA_PTR, txData);
 528:Generated_Source\PSoC5/SPIM_1.c ****         }
 529:Generated_Source\PSoC5/SPIM_1.c ****         else
 530:Generated_Source\PSoC5/SPIM_1.c ****         {
 531:Generated_Source\PSoC5/SPIM_1.c ****             /* Add to the TX software buffer */
 532:Generated_Source\PSoC5/SPIM_1.c ****             SPIM_1_txBufferWrite++;
 533:Generated_Source\PSoC5/SPIM_1.c ****             if(SPIM_1_txBufferWrite >= SPIM_1_TX_BUFFER_SIZE)
 534:Generated_Source\PSoC5/SPIM_1.c ****             {
 535:Generated_Source\PSoC5/SPIM_1.c ****                 SPIM_1_txBufferWrite = 0u;
 536:Generated_Source\PSoC5/SPIM_1.c ****             }
 537:Generated_Source\PSoC5/SPIM_1.c **** 
 538:Generated_Source\PSoC5/SPIM_1.c ****             if(SPIM_1_txBufferWrite == SPIM_1_txBufferRead)
 539:Generated_Source\PSoC5/SPIM_1.c ****             {
 540:Generated_Source\PSoC5/SPIM_1.c ****                 SPIM_1_txBufferRead++;
 541:Generated_Source\PSoC5/SPIM_1.c ****                 if(SPIM_1_txBufferRead >= SPIM_1_TX_BUFFER_SIZE)
 542:Generated_Source\PSoC5/SPIM_1.c ****                 {
 543:Generated_Source\PSoC5/SPIM_1.c ****                     SPIM_1_txBufferRead = 0u;
 544:Generated_Source\PSoC5/SPIM_1.c ****                 }
 545:Generated_Source\PSoC5/SPIM_1.c ****                 SPIM_1_txBufferFull = 1u;
 546:Generated_Source\PSoC5/SPIM_1.c ****             }
 547:Generated_Source\PSoC5/SPIM_1.c **** 
 548:Generated_Source\PSoC5/SPIM_1.c ****             SPIM_1_txBuffer[SPIM_1_txBufferWrite] = txData;
 549:Generated_Source\PSoC5/SPIM_1.c **** 
 550:Generated_Source\PSoC5/SPIM_1.c ****             SPIM_1_TX_STATUS_MASK_REG |= SPIM_1_STS_TX_FIFO_NOT_FULL;
 551:Generated_Source\PSoC5/SPIM_1.c ****         }
 552:Generated_Source\PSoC5/SPIM_1.c **** 
 553:Generated_Source\PSoC5/SPIM_1.c ****         SPIM_1_EnableTxInt();
 554:Generated_Source\PSoC5/SPIM_1.c **** 
 555:Generated_Source\PSoC5/SPIM_1.c ****     #else
 556:Generated_Source\PSoC5/SPIM_1.c ****         /* Wait until TX FIFO has a place */
 557:Generated_Source\PSoC5/SPIM_1.c ****         while(0u == (SPIM_1_TX_STATUS_REG & SPIM_1_STS_TX_FIFO_NOT_FULL))
 290              		.loc 1 557 0 discriminator 1
 291 0000 034B     		ldr	r3, .L27
 292 0002 1B78     		ldrb	r3, [r3]	@ zero_extendqisi2
 293 0004 13F0040F 		tst	r3, #4
 294 0008 FAD0     		beq	.L26
 558:Generated_Source\PSoC5/SPIM_1.c ****         {
 559:Generated_Source\PSoC5/SPIM_1.c ****         }
 560:Generated_Source\PSoC5/SPIM_1.c **** 
 561:Generated_Source\PSoC5/SPIM_1.c ****         /* Put data element into the TX FIFO */
ARM GAS  C:\Users\pajoh\AppData\Local\Temp\ccABZ0A6.s 			page 16


 562:Generated_Source\PSoC5/SPIM_1.c ****         CY_SET_REG8(SPIM_1_TXDATA_PTR, txData);
 295              		.loc 1 562 0
 296 000a 024B     		ldr	r3, .L27+4
 297 000c 1870     		strb	r0, [r3]
 298 000e 7047     		bx	lr
 299              	.L28:
 300              		.align	2
 301              	.L27:
 302 0010 6A640040 		.word	1073767530
 303 0014 4A640040 		.word	1073767498
 304              		.cfi_endproc
 305              	.LFE12:
 306              		.size	SPIM_1_WriteTxData, .-SPIM_1_WriteTxData
 307              		.section	.text.SPIM_1_ReadRxData,"ax",%progbits
 308              		.align	2
 309              		.global	SPIM_1_ReadRxData
 310              		.thumb
 311              		.thumb_func
 312              		.type	SPIM_1_ReadRxData, %function
 313              	SPIM_1_ReadRxData:
 314              	.LFB13:
 563:Generated_Source\PSoC5/SPIM_1.c **** 
 564:Generated_Source\PSoC5/SPIM_1.c ****     #endif /* (SPIM_1_TX_SOFTWARE_BUF_ENABLED) */
 565:Generated_Source\PSoC5/SPIM_1.c **** }
 566:Generated_Source\PSoC5/SPIM_1.c **** 
 567:Generated_Source\PSoC5/SPIM_1.c **** 
 568:Generated_Source\PSoC5/SPIM_1.c **** /*******************************************************************************
 569:Generated_Source\PSoC5/SPIM_1.c **** * Function Name: SPIM_1_ReadRxData
 570:Generated_Source\PSoC5/SPIM_1.c **** ********************************************************************************
 571:Generated_Source\PSoC5/SPIM_1.c **** *
 572:Generated_Source\PSoC5/SPIM_1.c **** * Summary:
 573:Generated_Source\PSoC5/SPIM_1.c **** *  Read the next byte of data received across the SPI.
 574:Generated_Source\PSoC5/SPIM_1.c **** *
 575:Generated_Source\PSoC5/SPIM_1.c **** * Parameters:
 576:Generated_Source\PSoC5/SPIM_1.c **** *  None.
 577:Generated_Source\PSoC5/SPIM_1.c **** *
 578:Generated_Source\PSoC5/SPIM_1.c **** * Return:
 579:Generated_Source\PSoC5/SPIM_1.c **** *  The next byte of data read from the FIFO.
 580:Generated_Source\PSoC5/SPIM_1.c **** *
 581:Generated_Source\PSoC5/SPIM_1.c **** * Global variables:
 582:Generated_Source\PSoC5/SPIM_1.c **** *  SPIM_1_rxBufferWrite - used for the account of the bytes which
 583:Generated_Source\PSoC5/SPIM_1.c **** *  have been written down in the RX software buffer.
 584:Generated_Source\PSoC5/SPIM_1.c **** *  SPIM_1_rxBufferRead - used for the account of the bytes which
 585:Generated_Source\PSoC5/SPIM_1.c **** *  have been read from the RX software buffer, modified every function
 586:Generated_Source\PSoC5/SPIM_1.c **** *  call if RX Software Buffer is used.
 587:Generated_Source\PSoC5/SPIM_1.c **** *  SPIM_1_rxBuffer[SPIM_1_RX_BUFFER_SIZE] - used to store
 588:Generated_Source\PSoC5/SPIM_1.c **** *  received data.
 589:Generated_Source\PSoC5/SPIM_1.c **** *
 590:Generated_Source\PSoC5/SPIM_1.c **** * Theory:
 591:Generated_Source\PSoC5/SPIM_1.c **** *  Allows the user to read a byte of data received.
 592:Generated_Source\PSoC5/SPIM_1.c **** *
 593:Generated_Source\PSoC5/SPIM_1.c **** * Side Effects:
 594:Generated_Source\PSoC5/SPIM_1.c **** *  Will return invalid data if the FIFO is empty. The user should Call
 595:Generated_Source\PSoC5/SPIM_1.c **** *  GetRxBufferSize() and if it returns a non-zero value then it is safe to call
 596:Generated_Source\PSoC5/SPIM_1.c **** *  ReadByte() function.
 597:Generated_Source\PSoC5/SPIM_1.c **** *
 598:Generated_Source\PSoC5/SPIM_1.c **** * Reentrant:
ARM GAS  C:\Users\pajoh\AppData\Local\Temp\ccABZ0A6.s 			page 17


 599:Generated_Source\PSoC5/SPIM_1.c **** *  No.
 600:Generated_Source\PSoC5/SPIM_1.c **** *
 601:Generated_Source\PSoC5/SPIM_1.c **** *******************************************************************************/
 602:Generated_Source\PSoC5/SPIM_1.c **** uint8 SPIM_1_ReadRxData(void) 
 603:Generated_Source\PSoC5/SPIM_1.c **** {
 315              		.loc 1 603 0
 316              		.cfi_startproc
 317              		@ args = 0, pretend = 0, frame = 0
 318              		@ frame_needed = 0, uses_anonymous_args = 0
 319              		@ link register save eliminated.
 604:Generated_Source\PSoC5/SPIM_1.c ****     uint8 rxData;
 605:Generated_Source\PSoC5/SPIM_1.c **** 
 606:Generated_Source\PSoC5/SPIM_1.c ****     #if(SPIM_1_RX_SOFTWARE_BUF_ENABLED)
 607:Generated_Source\PSoC5/SPIM_1.c **** 
 608:Generated_Source\PSoC5/SPIM_1.c ****         /* Disable RX interrupt to protect global veriables */
 609:Generated_Source\PSoC5/SPIM_1.c ****         SPIM_1_DisableRxInt();
 610:Generated_Source\PSoC5/SPIM_1.c **** 
 611:Generated_Source\PSoC5/SPIM_1.c ****         if(SPIM_1_rxBufferRead != SPIM_1_rxBufferWrite)
 612:Generated_Source\PSoC5/SPIM_1.c ****         {
 613:Generated_Source\PSoC5/SPIM_1.c ****             if(0u == SPIM_1_rxBufferFull)
 614:Generated_Source\PSoC5/SPIM_1.c ****             {
 615:Generated_Source\PSoC5/SPIM_1.c ****                 SPIM_1_rxBufferRead++;
 616:Generated_Source\PSoC5/SPIM_1.c ****                 if(SPIM_1_rxBufferRead >= SPIM_1_RX_BUFFER_SIZE)
 617:Generated_Source\PSoC5/SPIM_1.c ****                 {
 618:Generated_Source\PSoC5/SPIM_1.c ****                     SPIM_1_rxBufferRead = 0u;
 619:Generated_Source\PSoC5/SPIM_1.c ****                 }
 620:Generated_Source\PSoC5/SPIM_1.c ****             }
 621:Generated_Source\PSoC5/SPIM_1.c ****             else
 622:Generated_Source\PSoC5/SPIM_1.c ****             {
 623:Generated_Source\PSoC5/SPIM_1.c ****                 SPIM_1_rxBufferFull = 0u;
 624:Generated_Source\PSoC5/SPIM_1.c ****             }
 625:Generated_Source\PSoC5/SPIM_1.c ****         }
 626:Generated_Source\PSoC5/SPIM_1.c **** 
 627:Generated_Source\PSoC5/SPIM_1.c ****         rxData = SPIM_1_rxBuffer[SPIM_1_rxBufferRead];
 628:Generated_Source\PSoC5/SPIM_1.c **** 
 629:Generated_Source\PSoC5/SPIM_1.c ****         SPIM_1_EnableRxInt();
 630:Generated_Source\PSoC5/SPIM_1.c **** 
 631:Generated_Source\PSoC5/SPIM_1.c ****     #else
 632:Generated_Source\PSoC5/SPIM_1.c **** 
 633:Generated_Source\PSoC5/SPIM_1.c ****         rxData = CY_GET_REG8(SPIM_1_RXDATA_PTR);
 320              		.loc 1 633 0
 321 0000 014B     		ldr	r3, .L30
 322 0002 1878     		ldrb	r0, [r3]	@ zero_extendqisi2
 323              	.LVL9:
 634:Generated_Source\PSoC5/SPIM_1.c **** 
 635:Generated_Source\PSoC5/SPIM_1.c ****     #endif /* (SPIM_1_RX_SOFTWARE_BUF_ENABLED) */
 636:Generated_Source\PSoC5/SPIM_1.c **** 
 637:Generated_Source\PSoC5/SPIM_1.c ****     return(rxData);
 638:Generated_Source\PSoC5/SPIM_1.c **** }
 324              		.loc 1 638 0
 325 0004 7047     		bx	lr
 326              	.L31:
 327 0006 00BF     		.align	2
 328              	.L30:
 329 0008 5A640040 		.word	1073767514
 330              		.cfi_endproc
 331              	.LFE13:
ARM GAS  C:\Users\pajoh\AppData\Local\Temp\ccABZ0A6.s 			page 18


 332              		.size	SPIM_1_ReadRxData, .-SPIM_1_ReadRxData
 333              		.section	.text.SPIM_1_GetRxBufferSize,"ax",%progbits
 334              		.align	2
 335              		.global	SPIM_1_GetRxBufferSize
 336              		.thumb
 337              		.thumb_func
 338              		.type	SPIM_1_GetRxBufferSize, %function
 339              	SPIM_1_GetRxBufferSize:
 340              	.LFB14:
 639:Generated_Source\PSoC5/SPIM_1.c **** 
 640:Generated_Source\PSoC5/SPIM_1.c **** 
 641:Generated_Source\PSoC5/SPIM_1.c **** /*******************************************************************************
 642:Generated_Source\PSoC5/SPIM_1.c **** * Function Name: SPIM_1_GetRxBufferSize
 643:Generated_Source\PSoC5/SPIM_1.c **** ********************************************************************************
 644:Generated_Source\PSoC5/SPIM_1.c **** *
 645:Generated_Source\PSoC5/SPIM_1.c **** * Summary:
 646:Generated_Source\PSoC5/SPIM_1.c **** *  Returns the number of bytes/words of data currently held in the RX buffer.
 647:Generated_Source\PSoC5/SPIM_1.c **** *  If RX Software Buffer not used then function return 0 if FIFO empty or 1 if
 648:Generated_Source\PSoC5/SPIM_1.c **** *  FIFO not empty. In another case function return size of RX Software Buffer.
 649:Generated_Source\PSoC5/SPIM_1.c **** *
 650:Generated_Source\PSoC5/SPIM_1.c **** * Parameters:
 651:Generated_Source\PSoC5/SPIM_1.c **** *  None.
 652:Generated_Source\PSoC5/SPIM_1.c **** *
 653:Generated_Source\PSoC5/SPIM_1.c **** * Return:
 654:Generated_Source\PSoC5/SPIM_1.c **** *  Integer count of the number of bytes/words in the RX buffer.
 655:Generated_Source\PSoC5/SPIM_1.c **** *
 656:Generated_Source\PSoC5/SPIM_1.c **** * Global variables:
 657:Generated_Source\PSoC5/SPIM_1.c **** *  SPIM_1_rxBufferWrite - used for the account of the bytes which
 658:Generated_Source\PSoC5/SPIM_1.c **** *  have been written down in the RX software buffer.
 659:Generated_Source\PSoC5/SPIM_1.c **** *  SPIM_1_rxBufferRead - used for the account of the bytes which
 660:Generated_Source\PSoC5/SPIM_1.c **** *  have been read from the RX software buffer.
 661:Generated_Source\PSoC5/SPIM_1.c **** *
 662:Generated_Source\PSoC5/SPIM_1.c **** * Side Effects:
 663:Generated_Source\PSoC5/SPIM_1.c **** *  Clear status register of the component.
 664:Generated_Source\PSoC5/SPIM_1.c **** *
 665:Generated_Source\PSoC5/SPIM_1.c **** *******************************************************************************/
 666:Generated_Source\PSoC5/SPIM_1.c **** uint8 SPIM_1_GetRxBufferSize(void) 
 667:Generated_Source\PSoC5/SPIM_1.c **** {
 341              		.loc 1 667 0
 342              		.cfi_startproc
 343              		@ args = 0, pretend = 0, frame = 0
 344              		@ frame_needed = 0, uses_anonymous_args = 0
 345              		@ link register save eliminated.
 668:Generated_Source\PSoC5/SPIM_1.c ****     uint8 size;
 669:Generated_Source\PSoC5/SPIM_1.c **** 
 670:Generated_Source\PSoC5/SPIM_1.c ****     #if(SPIM_1_RX_SOFTWARE_BUF_ENABLED)
 671:Generated_Source\PSoC5/SPIM_1.c **** 
 672:Generated_Source\PSoC5/SPIM_1.c ****         /* Disable RX interrupt to protect global veriables */
 673:Generated_Source\PSoC5/SPIM_1.c ****         SPIM_1_DisableRxInt();
 674:Generated_Source\PSoC5/SPIM_1.c **** 
 675:Generated_Source\PSoC5/SPIM_1.c ****         if(SPIM_1_rxBufferRead == SPIM_1_rxBufferWrite)
 676:Generated_Source\PSoC5/SPIM_1.c ****         {
 677:Generated_Source\PSoC5/SPIM_1.c ****             size = 0u;
 678:Generated_Source\PSoC5/SPIM_1.c ****         }
 679:Generated_Source\PSoC5/SPIM_1.c ****         else if(SPIM_1_rxBufferRead < SPIM_1_rxBufferWrite)
 680:Generated_Source\PSoC5/SPIM_1.c ****         {
 681:Generated_Source\PSoC5/SPIM_1.c ****             size = (SPIM_1_rxBufferWrite - SPIM_1_rxBufferRead);
ARM GAS  C:\Users\pajoh\AppData\Local\Temp\ccABZ0A6.s 			page 19


 682:Generated_Source\PSoC5/SPIM_1.c ****         }
 683:Generated_Source\PSoC5/SPIM_1.c ****         else
 684:Generated_Source\PSoC5/SPIM_1.c ****         {
 685:Generated_Source\PSoC5/SPIM_1.c ****             size = (SPIM_1_RX_BUFFER_SIZE - SPIM_1_rxBufferRead) + SPIM_1_rxBufferWrite;
 686:Generated_Source\PSoC5/SPIM_1.c ****         }
 687:Generated_Source\PSoC5/SPIM_1.c **** 
 688:Generated_Source\PSoC5/SPIM_1.c ****         SPIM_1_EnableRxInt();
 689:Generated_Source\PSoC5/SPIM_1.c **** 
 690:Generated_Source\PSoC5/SPIM_1.c ****     #else
 691:Generated_Source\PSoC5/SPIM_1.c **** 
 692:Generated_Source\PSoC5/SPIM_1.c ****         /* We can only know if there is data in the RX FIFO */
 693:Generated_Source\PSoC5/SPIM_1.c ****         size = (0u != (SPIM_1_RX_STATUS_REG & SPIM_1_STS_RX_FIFO_NOT_EMPTY)) ? 1u : 0u;
 346              		.loc 1 693 0
 347 0000 044B     		ldr	r3, .L35
 348 0002 1B78     		ldrb	r3, [r3]	@ zero_extendqisi2
 349 0004 13F0200F 		tst	r3, #32
 350 0008 01D0     		beq	.L34
 351 000a 0120     		movs	r0, #1
 352 000c 7047     		bx	lr
 353              	.L34:
 354 000e 0020     		movs	r0, #0
 355              	.LVL10:
 694:Generated_Source\PSoC5/SPIM_1.c **** 
 695:Generated_Source\PSoC5/SPIM_1.c ****     #endif /* (SPIM_1_TX_SOFTWARE_BUF_ENABLED) */
 696:Generated_Source\PSoC5/SPIM_1.c **** 
 697:Generated_Source\PSoC5/SPIM_1.c ****     return(size);
 698:Generated_Source\PSoC5/SPIM_1.c **** }
 356              		.loc 1 698 0
 357 0010 7047     		bx	lr
 358              	.L36:
 359 0012 00BF     		.align	2
 360              	.L35:
 361 0014 6A650040 		.word	1073767786
 362              		.cfi_endproc
 363              	.LFE14:
 364              		.size	SPIM_1_GetRxBufferSize, .-SPIM_1_GetRxBufferSize
 365              		.section	.text.SPIM_1_GetTxBufferSize,"ax",%progbits
 366              		.align	2
 367              		.global	SPIM_1_GetTxBufferSize
 368              		.thumb
 369              		.thumb_func
 370              		.type	SPIM_1_GetTxBufferSize, %function
 371              	SPIM_1_GetTxBufferSize:
 372              	.LFB15:
 699:Generated_Source\PSoC5/SPIM_1.c **** 
 700:Generated_Source\PSoC5/SPIM_1.c **** 
 701:Generated_Source\PSoC5/SPIM_1.c **** /*******************************************************************************
 702:Generated_Source\PSoC5/SPIM_1.c **** * Function Name: SPIM_1_GetTxBufferSize
 703:Generated_Source\PSoC5/SPIM_1.c **** ********************************************************************************
 704:Generated_Source\PSoC5/SPIM_1.c **** *
 705:Generated_Source\PSoC5/SPIM_1.c **** * Summary:
 706:Generated_Source\PSoC5/SPIM_1.c **** *  Returns the number of bytes/words of data currently held in the TX buffer.
 707:Generated_Source\PSoC5/SPIM_1.c **** *  If TX Software Buffer not used then function return 0 - if FIFO empty, 1 - if
 708:Generated_Source\PSoC5/SPIM_1.c **** *  FIFO not full, 4 - if FIFO full. In another case function return size of TX
 709:Generated_Source\PSoC5/SPIM_1.c **** *  Software Buffer.
 710:Generated_Source\PSoC5/SPIM_1.c **** *
 711:Generated_Source\PSoC5/SPIM_1.c **** * Parameters:
ARM GAS  C:\Users\pajoh\AppData\Local\Temp\ccABZ0A6.s 			page 20


 712:Generated_Source\PSoC5/SPIM_1.c **** *  None.
 713:Generated_Source\PSoC5/SPIM_1.c **** *
 714:Generated_Source\PSoC5/SPIM_1.c **** * Return:
 715:Generated_Source\PSoC5/SPIM_1.c **** *  Integer count of the number of bytes/words in the TX buffer.
 716:Generated_Source\PSoC5/SPIM_1.c **** *
 717:Generated_Source\PSoC5/SPIM_1.c **** * Global variables:
 718:Generated_Source\PSoC5/SPIM_1.c **** *  SPIM_1_txBufferWrite - used for the account of the bytes which
 719:Generated_Source\PSoC5/SPIM_1.c **** *  have been written down in the TX software buffer.
 720:Generated_Source\PSoC5/SPIM_1.c **** *  SPIM_1_txBufferRead - used for the account of the bytes which
 721:Generated_Source\PSoC5/SPIM_1.c **** *  have been read from the TX software buffer.
 722:Generated_Source\PSoC5/SPIM_1.c **** *
 723:Generated_Source\PSoC5/SPIM_1.c **** * Side Effects:
 724:Generated_Source\PSoC5/SPIM_1.c **** *  Clear status register of the component.
 725:Generated_Source\PSoC5/SPIM_1.c **** *
 726:Generated_Source\PSoC5/SPIM_1.c **** *******************************************************************************/
 727:Generated_Source\PSoC5/SPIM_1.c **** uint8  SPIM_1_GetTxBufferSize(void) 
 728:Generated_Source\PSoC5/SPIM_1.c **** {
 373              		.loc 1 728 0
 374              		.cfi_startproc
 375              		@ args = 0, pretend = 0, frame = 0
 376              		@ frame_needed = 0, uses_anonymous_args = 0
 377              		@ link register save eliminated.
 729:Generated_Source\PSoC5/SPIM_1.c ****     uint8 size;
 730:Generated_Source\PSoC5/SPIM_1.c **** 
 731:Generated_Source\PSoC5/SPIM_1.c ****     #if(SPIM_1_TX_SOFTWARE_BUF_ENABLED)
 732:Generated_Source\PSoC5/SPIM_1.c ****         /* Disable TX interrupt to protect global veriables */
 733:Generated_Source\PSoC5/SPIM_1.c ****         SPIM_1_DisableTxInt();
 734:Generated_Source\PSoC5/SPIM_1.c **** 
 735:Generated_Source\PSoC5/SPIM_1.c ****         if(SPIM_1_txBufferRead == SPIM_1_txBufferWrite)
 736:Generated_Source\PSoC5/SPIM_1.c ****         {
 737:Generated_Source\PSoC5/SPIM_1.c ****             size = 0u;
 738:Generated_Source\PSoC5/SPIM_1.c ****         }
 739:Generated_Source\PSoC5/SPIM_1.c ****         else if(SPIM_1_txBufferRead < SPIM_1_txBufferWrite)
 740:Generated_Source\PSoC5/SPIM_1.c ****         {
 741:Generated_Source\PSoC5/SPIM_1.c ****             size = (SPIM_1_txBufferWrite - SPIM_1_txBufferRead);
 742:Generated_Source\PSoC5/SPIM_1.c ****         }
 743:Generated_Source\PSoC5/SPIM_1.c ****         else
 744:Generated_Source\PSoC5/SPIM_1.c ****         {
 745:Generated_Source\PSoC5/SPIM_1.c ****             size = (SPIM_1_TX_BUFFER_SIZE - SPIM_1_txBufferRead) + SPIM_1_txBufferWrite;
 746:Generated_Source\PSoC5/SPIM_1.c ****         }
 747:Generated_Source\PSoC5/SPIM_1.c **** 
 748:Generated_Source\PSoC5/SPIM_1.c ****         SPIM_1_EnableTxInt();
 749:Generated_Source\PSoC5/SPIM_1.c **** 
 750:Generated_Source\PSoC5/SPIM_1.c ****     #else
 751:Generated_Source\PSoC5/SPIM_1.c **** 
 752:Generated_Source\PSoC5/SPIM_1.c ****         size = SPIM_1_TX_STATUS_REG;
 378              		.loc 1 752 0
 379 0000 074B     		ldr	r3, .L41
 380 0002 1B78     		ldrb	r3, [r3]	@ zero_extendqisi2
 381 0004 DBB2     		uxtb	r3, r3
 382              	.LVL11:
 753:Generated_Source\PSoC5/SPIM_1.c **** 
 754:Generated_Source\PSoC5/SPIM_1.c ****         if(0u != (size & SPIM_1_STS_TX_FIFO_EMPTY))
 383              		.loc 1 754 0
 384 0006 13F0020F 		tst	r3, #2
 385 000a 04D1     		bne	.L39
 755:Generated_Source\PSoC5/SPIM_1.c ****         {
ARM GAS  C:\Users\pajoh\AppData\Local\Temp\ccABZ0A6.s 			page 21


 756:Generated_Source\PSoC5/SPIM_1.c ****             size = 0u;
 757:Generated_Source\PSoC5/SPIM_1.c ****         }
 758:Generated_Source\PSoC5/SPIM_1.c ****         else if(0u != (size & SPIM_1_STS_TX_FIFO_NOT_FULL))
 386              		.loc 1 758 0
 387 000c 13F0040F 		tst	r3, #4
 388 0010 03D0     		beq	.L40
 759:Generated_Source\PSoC5/SPIM_1.c ****         {
 760:Generated_Source\PSoC5/SPIM_1.c ****             size = 1u;
 389              		.loc 1 760 0
 390 0012 0120     		movs	r0, #1
 391 0014 7047     		bx	lr
 392              	.L39:
 756:Generated_Source\PSoC5/SPIM_1.c ****         }
 393              		.loc 1 756 0
 394 0016 0020     		movs	r0, #0
 395 0018 7047     		bx	lr
 396              	.L40:
 761:Generated_Source\PSoC5/SPIM_1.c ****         }
 762:Generated_Source\PSoC5/SPIM_1.c ****         else
 763:Generated_Source\PSoC5/SPIM_1.c ****         {
 764:Generated_Source\PSoC5/SPIM_1.c ****             size = SPIM_1_FIFO_SIZE;
 397              		.loc 1 764 0
 398 001a 0420     		movs	r0, #4
 399              	.LVL12:
 765:Generated_Source\PSoC5/SPIM_1.c ****         }
 766:Generated_Source\PSoC5/SPIM_1.c **** 
 767:Generated_Source\PSoC5/SPIM_1.c ****     #endif /* (SPIM_1_TX_SOFTWARE_BUF_ENABLED) */
 768:Generated_Source\PSoC5/SPIM_1.c **** 
 769:Generated_Source\PSoC5/SPIM_1.c ****     return(size);
 770:Generated_Source\PSoC5/SPIM_1.c **** }
 400              		.loc 1 770 0
 401 001c 7047     		bx	lr
 402              	.L42:
 403 001e 00BF     		.align	2
 404              	.L41:
 405 0020 6A640040 		.word	1073767530
 406              		.cfi_endproc
 407              	.LFE15:
 408              		.size	SPIM_1_GetTxBufferSize, .-SPIM_1_GetTxBufferSize
 409              		.section	.text.SPIM_1_ClearRxBuffer,"ax",%progbits
 410              		.align	2
 411              		.global	SPIM_1_ClearRxBuffer
 412              		.thumb
 413              		.thumb_func
 414              		.type	SPIM_1_ClearRxBuffer, %function
 415              	SPIM_1_ClearRxBuffer:
 416              	.LFB16:
 771:Generated_Source\PSoC5/SPIM_1.c **** 
 772:Generated_Source\PSoC5/SPIM_1.c **** 
 773:Generated_Source\PSoC5/SPIM_1.c **** /*******************************************************************************
 774:Generated_Source\PSoC5/SPIM_1.c **** * Function Name: SPIM_1_ClearRxBuffer
 775:Generated_Source\PSoC5/SPIM_1.c **** ********************************************************************************
 776:Generated_Source\PSoC5/SPIM_1.c **** *
 777:Generated_Source\PSoC5/SPIM_1.c **** * Summary:
 778:Generated_Source\PSoC5/SPIM_1.c **** *  Clear the RX RAM buffer by setting the read and write pointers both to zero.
 779:Generated_Source\PSoC5/SPIM_1.c **** *
 780:Generated_Source\PSoC5/SPIM_1.c **** * Parameters:
ARM GAS  C:\Users\pajoh\AppData\Local\Temp\ccABZ0A6.s 			page 22


 781:Generated_Source\PSoC5/SPIM_1.c **** *  None.
 782:Generated_Source\PSoC5/SPIM_1.c **** *
 783:Generated_Source\PSoC5/SPIM_1.c **** * Return:
 784:Generated_Source\PSoC5/SPIM_1.c **** *  None.
 785:Generated_Source\PSoC5/SPIM_1.c **** *
 786:Generated_Source\PSoC5/SPIM_1.c **** * Global variables:
 787:Generated_Source\PSoC5/SPIM_1.c **** *  SPIM_1_rxBufferWrite - used for the account of the bytes which
 788:Generated_Source\PSoC5/SPIM_1.c **** *  have been written down in the RX software buffer, modified every function
 789:Generated_Source\PSoC5/SPIM_1.c **** *  call - resets to zero.
 790:Generated_Source\PSoC5/SPIM_1.c **** *  SPIM_1_rxBufferRead - used for the account of the bytes which
 791:Generated_Source\PSoC5/SPIM_1.c **** *  have been read from the RX software buffer, modified every function call -
 792:Generated_Source\PSoC5/SPIM_1.c **** *  resets to zero.
 793:Generated_Source\PSoC5/SPIM_1.c **** *
 794:Generated_Source\PSoC5/SPIM_1.c **** * Theory:
 795:Generated_Source\PSoC5/SPIM_1.c **** *  Setting the pointers to zero makes the system believe there is no data to
 796:Generated_Source\PSoC5/SPIM_1.c **** *  read and writing will resume at address 0 overwriting any data that may have
 797:Generated_Source\PSoC5/SPIM_1.c **** *  remained in the RAM.
 798:Generated_Source\PSoC5/SPIM_1.c **** *
 799:Generated_Source\PSoC5/SPIM_1.c **** * Side Effects:
 800:Generated_Source\PSoC5/SPIM_1.c **** *  Any received data not read from the RAM buffer will be lost when overwritten.
 801:Generated_Source\PSoC5/SPIM_1.c **** *
 802:Generated_Source\PSoC5/SPIM_1.c **** * Reentrant:
 803:Generated_Source\PSoC5/SPIM_1.c **** *  No.
 804:Generated_Source\PSoC5/SPIM_1.c **** *
 805:Generated_Source\PSoC5/SPIM_1.c **** *******************************************************************************/
 806:Generated_Source\PSoC5/SPIM_1.c **** void SPIM_1_ClearRxBuffer(void) 
 807:Generated_Source\PSoC5/SPIM_1.c **** {
 417              		.loc 1 807 0
 418              		.cfi_startproc
 419              		@ args = 0, pretend = 0, frame = 0
 420              		@ frame_needed = 0, uses_anonymous_args = 0
 421              		@ link register save eliminated.
 808:Generated_Source\PSoC5/SPIM_1.c ****     /* Clear Hardware RX FIFO */
 809:Generated_Source\PSoC5/SPIM_1.c ****     while(0u !=(SPIM_1_RX_STATUS_REG & SPIM_1_STS_RX_FIFO_NOT_EMPTY))
 422              		.loc 1 809 0
 423 0000 01E0     		b	.L44
 424              	.L45:
 810:Generated_Source\PSoC5/SPIM_1.c ****     {
 811:Generated_Source\PSoC5/SPIM_1.c ****         (void) CY_GET_REG8(SPIM_1_RXDATA_PTR);
 425              		.loc 1 811 0
 426 0002 044B     		ldr	r3, .L46
 427 0004 1B78     		ldrb	r3, [r3]	@ zero_extendqisi2
 428              	.L44:
 809:Generated_Source\PSoC5/SPIM_1.c ****     {
 429              		.loc 1 809 0
 430 0006 044B     		ldr	r3, .L46+4
 431 0008 1B78     		ldrb	r3, [r3]	@ zero_extendqisi2
 432 000a 13F0200F 		tst	r3, #32
 433 000e F8D1     		bne	.L45
 812:Generated_Source\PSoC5/SPIM_1.c ****     }
 813:Generated_Source\PSoC5/SPIM_1.c **** 
 814:Generated_Source\PSoC5/SPIM_1.c ****     #if(SPIM_1_RX_SOFTWARE_BUF_ENABLED)
 815:Generated_Source\PSoC5/SPIM_1.c ****         /* Disable RX interrupt to protect global veriables */
 816:Generated_Source\PSoC5/SPIM_1.c ****         SPIM_1_DisableRxInt();
 817:Generated_Source\PSoC5/SPIM_1.c **** 
 818:Generated_Source\PSoC5/SPIM_1.c ****         SPIM_1_rxBufferFull  = 0u;
 819:Generated_Source\PSoC5/SPIM_1.c ****         SPIM_1_rxBufferRead  = 0u;
ARM GAS  C:\Users\pajoh\AppData\Local\Temp\ccABZ0A6.s 			page 23


 820:Generated_Source\PSoC5/SPIM_1.c ****         SPIM_1_rxBufferWrite = 0u;
 821:Generated_Source\PSoC5/SPIM_1.c **** 
 822:Generated_Source\PSoC5/SPIM_1.c ****         SPIM_1_EnableRxInt();
 823:Generated_Source\PSoC5/SPIM_1.c ****     #endif /* (SPIM_1_RX_SOFTWARE_BUF_ENABLED) */
 824:Generated_Source\PSoC5/SPIM_1.c **** }
 434              		.loc 1 824 0
 435 0010 7047     		bx	lr
 436              	.L47:
 437 0012 00BF     		.align	2
 438              	.L46:
 439 0014 5A640040 		.word	1073767514
 440 0018 6A650040 		.word	1073767786
 441              		.cfi_endproc
 442              	.LFE16:
 443              		.size	SPIM_1_ClearRxBuffer, .-SPIM_1_ClearRxBuffer
 444              		.section	.text.SPIM_1_ClearTxBuffer,"ax",%progbits
 445              		.align	2
 446              		.global	SPIM_1_ClearTxBuffer
 447              		.thumb
 448              		.thumb_func
 449              		.type	SPIM_1_ClearTxBuffer, %function
 450              	SPIM_1_ClearTxBuffer:
 451              	.LFB17:
 825:Generated_Source\PSoC5/SPIM_1.c **** 
 826:Generated_Source\PSoC5/SPIM_1.c **** 
 827:Generated_Source\PSoC5/SPIM_1.c **** /*******************************************************************************
 828:Generated_Source\PSoC5/SPIM_1.c **** * Function Name: SPIM_1_ClearTxBuffer
 829:Generated_Source\PSoC5/SPIM_1.c **** ********************************************************************************
 830:Generated_Source\PSoC5/SPIM_1.c **** *
 831:Generated_Source\PSoC5/SPIM_1.c **** * Summary:
 832:Generated_Source\PSoC5/SPIM_1.c **** *  Clear the TX RAM buffer by setting the read and write pointers both to zero.
 833:Generated_Source\PSoC5/SPIM_1.c **** *
 834:Generated_Source\PSoC5/SPIM_1.c **** * Parameters:
 835:Generated_Source\PSoC5/SPIM_1.c **** *  None.
 836:Generated_Source\PSoC5/SPIM_1.c **** *
 837:Generated_Source\PSoC5/SPIM_1.c **** * Return:
 838:Generated_Source\PSoC5/SPIM_1.c **** *  None.
 839:Generated_Source\PSoC5/SPIM_1.c **** *
 840:Generated_Source\PSoC5/SPIM_1.c **** * Global variables:
 841:Generated_Source\PSoC5/SPIM_1.c **** *  SPIM_1_txBufferWrite - used for the account of the bytes which
 842:Generated_Source\PSoC5/SPIM_1.c **** *  have been written down in the TX software buffer, modified every function
 843:Generated_Source\PSoC5/SPIM_1.c **** *  call - resets to zero.
 844:Generated_Source\PSoC5/SPIM_1.c **** *  SPIM_1_txBufferRead - used for the account of the bytes which
 845:Generated_Source\PSoC5/SPIM_1.c **** *  have been read from the TX software buffer, modified every function call -
 846:Generated_Source\PSoC5/SPIM_1.c **** *  resets to zero.
 847:Generated_Source\PSoC5/SPIM_1.c **** *
 848:Generated_Source\PSoC5/SPIM_1.c **** * Theory:
 849:Generated_Source\PSoC5/SPIM_1.c **** *  Setting the pointers to zero makes the system believe there is no data to
 850:Generated_Source\PSoC5/SPIM_1.c **** *  read and writing will resume at address 0 overwriting any data that may have
 851:Generated_Source\PSoC5/SPIM_1.c **** *  remained in the RAM.
 852:Generated_Source\PSoC5/SPIM_1.c **** *
 853:Generated_Source\PSoC5/SPIM_1.c **** * Side Effects:
 854:Generated_Source\PSoC5/SPIM_1.c **** *  Any data not yet transmitted from the RAM buffer will be lost when
 855:Generated_Source\PSoC5/SPIM_1.c **** *  overwritten.
 856:Generated_Source\PSoC5/SPIM_1.c **** *
 857:Generated_Source\PSoC5/SPIM_1.c **** * Reentrant:
 858:Generated_Source\PSoC5/SPIM_1.c **** *  No.
ARM GAS  C:\Users\pajoh\AppData\Local\Temp\ccABZ0A6.s 			page 24


 859:Generated_Source\PSoC5/SPIM_1.c **** *
 860:Generated_Source\PSoC5/SPIM_1.c **** *******************************************************************************/
 861:Generated_Source\PSoC5/SPIM_1.c **** void SPIM_1_ClearTxBuffer(void) 
 862:Generated_Source\PSoC5/SPIM_1.c **** {
 452              		.loc 1 862 0
 453              		.cfi_startproc
 454              		@ args = 0, pretend = 0, frame = 0
 455              		@ frame_needed = 0, uses_anonymous_args = 0
 456 0000 08B5     		push	{r3, lr}
 457              		.cfi_def_cfa_offset 8
 458              		.cfi_offset 3, -8
 459              		.cfi_offset 14, -4
 863:Generated_Source\PSoC5/SPIM_1.c ****     uint8 enableInterrupts;
 864:Generated_Source\PSoC5/SPIM_1.c **** 
 865:Generated_Source\PSoC5/SPIM_1.c ****     enableInterrupts = CyEnterCriticalSection();
 460              		.loc 1 865 0
 461 0002 FFF7FEFF 		bl	CyEnterCriticalSection
 462              	.LVL13:
 866:Generated_Source\PSoC5/SPIM_1.c ****     /* Clear TX FIFO */
 867:Generated_Source\PSoC5/SPIM_1.c ****     SPIM_1_AUX_CONTROL_DP0_REG |= ((uint8)  SPIM_1_TX_FIFO_CLR);
 463              		.loc 1 867 0
 464 0006 064B     		ldr	r3, .L50
 465 0008 1A78     		ldrb	r2, [r3]	@ zero_extendqisi2
 466 000a 42F00102 		orr	r2, r2, #1
 467 000e 1A70     		strb	r2, [r3]
 868:Generated_Source\PSoC5/SPIM_1.c ****     SPIM_1_AUX_CONTROL_DP0_REG &= ((uint8) ~SPIM_1_TX_FIFO_CLR);
 468              		.loc 1 868 0
 469 0010 1A78     		ldrb	r2, [r3]	@ zero_extendqisi2
 470 0012 02F0FE02 		and	r2, r2, #254
 471 0016 1A70     		strb	r2, [r3]
 869:Generated_Source\PSoC5/SPIM_1.c **** 
 870:Generated_Source\PSoC5/SPIM_1.c ****     #if(SPIM_1_USE_SECOND_DATAPATH)
 871:Generated_Source\PSoC5/SPIM_1.c ****         /* Clear TX FIFO for 2nd Datapath */
 872:Generated_Source\PSoC5/SPIM_1.c ****         SPIM_1_AUX_CONTROL_DP1_REG |= ((uint8)  SPIM_1_TX_FIFO_CLR);
 873:Generated_Source\PSoC5/SPIM_1.c ****         SPIM_1_AUX_CONTROL_DP1_REG &= ((uint8) ~SPIM_1_TX_FIFO_CLR);
 874:Generated_Source\PSoC5/SPIM_1.c ****     #endif /* (SPIM_1_USE_SECOND_DATAPATH) */
 875:Generated_Source\PSoC5/SPIM_1.c ****     CyExitCriticalSection(enableInterrupts);
 472              		.loc 1 875 0
 473 0018 FFF7FEFF 		bl	CyExitCriticalSection
 474              	.LVL14:
 475 001c 08BD     		pop	{r3, pc}
 476              	.L51:
 477 001e 00BF     		.align	2
 478              	.L50:
 479 0020 9A640040 		.word	1073767578
 480              		.cfi_endproc
 481              	.LFE17:
 482              		.size	SPIM_1_ClearTxBuffer, .-SPIM_1_ClearTxBuffer
 483              		.section	.text.SPIM_1_PutArray,"ax",%progbits
 484              		.align	2
 485              		.global	SPIM_1_PutArray
 486              		.thumb
 487              		.thumb_func
 488              		.type	SPIM_1_PutArray, %function
 489              	SPIM_1_PutArray:
 490              	.LFB18:
 876:Generated_Source\PSoC5/SPIM_1.c **** 
ARM GAS  C:\Users\pajoh\AppData\Local\Temp\ccABZ0A6.s 			page 25


 877:Generated_Source\PSoC5/SPIM_1.c ****     #if(SPIM_1_TX_SOFTWARE_BUF_ENABLED)
 878:Generated_Source\PSoC5/SPIM_1.c ****         /* Disable TX interrupt to protect global veriables */
 879:Generated_Source\PSoC5/SPIM_1.c ****         SPIM_1_DisableTxInt();
 880:Generated_Source\PSoC5/SPIM_1.c **** 
 881:Generated_Source\PSoC5/SPIM_1.c ****         SPIM_1_txBufferFull  = 0u;
 882:Generated_Source\PSoC5/SPIM_1.c ****         SPIM_1_txBufferRead  = 0u;
 883:Generated_Source\PSoC5/SPIM_1.c ****         SPIM_1_txBufferWrite = 0u;
 884:Generated_Source\PSoC5/SPIM_1.c **** 
 885:Generated_Source\PSoC5/SPIM_1.c ****         /* Buffer is EMPTY: disable TX FIFO NOT FULL interrupt */
 886:Generated_Source\PSoC5/SPIM_1.c ****         SPIM_1_TX_STATUS_MASK_REG &= ((uint8) ~SPIM_1_STS_TX_FIFO_NOT_FULL);
 887:Generated_Source\PSoC5/SPIM_1.c **** 
 888:Generated_Source\PSoC5/SPIM_1.c ****         SPIM_1_EnableTxInt();
 889:Generated_Source\PSoC5/SPIM_1.c ****     #endif /* (SPIM_1_TX_SOFTWARE_BUF_ENABLED) */
 890:Generated_Source\PSoC5/SPIM_1.c **** }
 891:Generated_Source\PSoC5/SPIM_1.c **** 
 892:Generated_Source\PSoC5/SPIM_1.c **** 
 893:Generated_Source\PSoC5/SPIM_1.c **** #if(0u != SPIM_1_BIDIRECTIONAL_MODE)
 894:Generated_Source\PSoC5/SPIM_1.c ****     /*******************************************************************************
 895:Generated_Source\PSoC5/SPIM_1.c ****     * Function Name: SPIM_1_TxEnable
 896:Generated_Source\PSoC5/SPIM_1.c ****     ********************************************************************************
 897:Generated_Source\PSoC5/SPIM_1.c ****     *
 898:Generated_Source\PSoC5/SPIM_1.c ****     * Summary:
 899:Generated_Source\PSoC5/SPIM_1.c ****     *  If the SPI master is configured to use a single bi-directional pin then this
 900:Generated_Source\PSoC5/SPIM_1.c ****     *  will set the bi-directional pin to transmit.
 901:Generated_Source\PSoC5/SPIM_1.c ****     *
 902:Generated_Source\PSoC5/SPIM_1.c ****     * Parameters:
 903:Generated_Source\PSoC5/SPIM_1.c ****     *  None.
 904:Generated_Source\PSoC5/SPIM_1.c ****     *
 905:Generated_Source\PSoC5/SPIM_1.c ****     * Return:
 906:Generated_Source\PSoC5/SPIM_1.c ****     *  None.
 907:Generated_Source\PSoC5/SPIM_1.c ****     *
 908:Generated_Source\PSoC5/SPIM_1.c ****     *******************************************************************************/
 909:Generated_Source\PSoC5/SPIM_1.c ****     void SPIM_1_TxEnable(void) 
 910:Generated_Source\PSoC5/SPIM_1.c ****     {
 911:Generated_Source\PSoC5/SPIM_1.c ****         SPIM_1_CONTROL_REG |= SPIM_1_CTRL_TX_SIGNAL_EN;
 912:Generated_Source\PSoC5/SPIM_1.c ****     }
 913:Generated_Source\PSoC5/SPIM_1.c **** 
 914:Generated_Source\PSoC5/SPIM_1.c **** 
 915:Generated_Source\PSoC5/SPIM_1.c ****     /*******************************************************************************
 916:Generated_Source\PSoC5/SPIM_1.c ****     * Function Name: SPIM_1_TxDisable
 917:Generated_Source\PSoC5/SPIM_1.c ****     ********************************************************************************
 918:Generated_Source\PSoC5/SPIM_1.c ****     *
 919:Generated_Source\PSoC5/SPIM_1.c ****     * Summary:
 920:Generated_Source\PSoC5/SPIM_1.c ****     *  If the SPI master is configured to use a single bi-directional pin then this
 921:Generated_Source\PSoC5/SPIM_1.c ****     *  will set the bi-directional pin to receive.
 922:Generated_Source\PSoC5/SPIM_1.c ****     *
 923:Generated_Source\PSoC5/SPIM_1.c ****     * Parameters:
 924:Generated_Source\PSoC5/SPIM_1.c ****     *  None.
 925:Generated_Source\PSoC5/SPIM_1.c ****     *
 926:Generated_Source\PSoC5/SPIM_1.c ****     * Return:
 927:Generated_Source\PSoC5/SPIM_1.c ****     *  None.
 928:Generated_Source\PSoC5/SPIM_1.c ****     *
 929:Generated_Source\PSoC5/SPIM_1.c ****     *******************************************************************************/
 930:Generated_Source\PSoC5/SPIM_1.c ****     void SPIM_1_TxDisable(void) 
 931:Generated_Source\PSoC5/SPIM_1.c ****     {
 932:Generated_Source\PSoC5/SPIM_1.c ****         SPIM_1_CONTROL_REG &= ((uint8) ~SPIM_1_CTRL_TX_SIGNAL_EN);
 933:Generated_Source\PSoC5/SPIM_1.c ****     }
ARM GAS  C:\Users\pajoh\AppData\Local\Temp\ccABZ0A6.s 			page 26


 934:Generated_Source\PSoC5/SPIM_1.c **** 
 935:Generated_Source\PSoC5/SPIM_1.c **** #endif /* (0u != SPIM_1_BIDIRECTIONAL_MODE) */
 936:Generated_Source\PSoC5/SPIM_1.c **** 
 937:Generated_Source\PSoC5/SPIM_1.c **** 
 938:Generated_Source\PSoC5/SPIM_1.c **** /*******************************************************************************
 939:Generated_Source\PSoC5/SPIM_1.c **** * Function Name: SPIM_1_PutArray
 940:Generated_Source\PSoC5/SPIM_1.c **** ********************************************************************************
 941:Generated_Source\PSoC5/SPIM_1.c **** *
 942:Generated_Source\PSoC5/SPIM_1.c **** * Summary:
 943:Generated_Source\PSoC5/SPIM_1.c **** *  Write available data from ROM/RAM to the TX buffer while space is available
 944:Generated_Source\PSoC5/SPIM_1.c **** *  in the TX buffer. Keep trying until all data is passed to the TX buffer.
 945:Generated_Source\PSoC5/SPIM_1.c **** *
 946:Generated_Source\PSoC5/SPIM_1.c **** * Parameters:
 947:Generated_Source\PSoC5/SPIM_1.c **** *  *buffer: Pointer to the location in RAM containing the data to send
 948:Generated_Source\PSoC5/SPIM_1.c **** *  byteCount: The number of bytes to move to the transmit buffer.
 949:Generated_Source\PSoC5/SPIM_1.c **** *
 950:Generated_Source\PSoC5/SPIM_1.c **** * Return:
 951:Generated_Source\PSoC5/SPIM_1.c **** *  None.
 952:Generated_Source\PSoC5/SPIM_1.c **** *
 953:Generated_Source\PSoC5/SPIM_1.c **** * Side Effects:
 954:Generated_Source\PSoC5/SPIM_1.c **** *  Will stay in this routine until all data has been sent.  May get locked in
 955:Generated_Source\PSoC5/SPIM_1.c **** *  this loop if data is not being initiated by the master if there is not
 956:Generated_Source\PSoC5/SPIM_1.c **** *  enough room in the TX FIFO.
 957:Generated_Source\PSoC5/SPIM_1.c **** *
 958:Generated_Source\PSoC5/SPIM_1.c **** * Reentrant:
 959:Generated_Source\PSoC5/SPIM_1.c **** *  No.
 960:Generated_Source\PSoC5/SPIM_1.c **** *
 961:Generated_Source\PSoC5/SPIM_1.c **** *******************************************************************************/
 962:Generated_Source\PSoC5/SPIM_1.c **** void SPIM_1_PutArray(const uint8 buffer[], uint8 byteCount)
 963:Generated_Source\PSoC5/SPIM_1.c ****                                                                           
 964:Generated_Source\PSoC5/SPIM_1.c **** {
 491              		.loc 1 964 0
 492              		.cfi_startproc
 493              		@ args = 0, pretend = 0, frame = 0
 494              		@ frame_needed = 0, uses_anonymous_args = 0
 495              	.LVL15:
 496 0000 70B5     		push	{r4, r5, r6, lr}
 497              		.cfi_def_cfa_offset 16
 498              		.cfi_offset 4, -16
 499              		.cfi_offset 5, -12
 500              		.cfi_offset 6, -8
 501              		.cfi_offset 14, -4
 502 0002 0646     		mov	r6, r0
 503 0004 0C46     		mov	r4, r1
 504              	.LVL16:
 965:Generated_Source\PSoC5/SPIM_1.c ****     uint8 bufIndex;
 966:Generated_Source\PSoC5/SPIM_1.c **** 
 967:Generated_Source\PSoC5/SPIM_1.c ****     bufIndex = 0u;
 505              		.loc 1 967 0
 506 0006 0025     		movs	r5, #0
 968:Generated_Source\PSoC5/SPIM_1.c **** 
 969:Generated_Source\PSoC5/SPIM_1.c ****     while(byteCount > 0u)
 507              		.loc 1 969 0
 508 0008 06E0     		b	.L53
 509              	.LVL17:
 510              	.L54:
 970:Generated_Source\PSoC5/SPIM_1.c ****     {
ARM GAS  C:\Users\pajoh\AppData\Local\Temp\ccABZ0A6.s 			page 27


 971:Generated_Source\PSoC5/SPIM_1.c ****         SPIM_1_WriteTxData(buffer[bufIndex]);
 511              		.loc 1 971 0
 512 000a 705D     		ldrb	r0, [r6, r5]	@ zero_extendqisi2
 513 000c FFF7FEFF 		bl	SPIM_1_WriteTxData
 514              	.LVL18:
 972:Generated_Source\PSoC5/SPIM_1.c ****         bufIndex++;
 515              		.loc 1 972 0
 516 0010 0135     		adds	r5, r5, #1
 517              	.LVL19:
 518 0012 EDB2     		uxtb	r5, r5
 519              	.LVL20:
 973:Generated_Source\PSoC5/SPIM_1.c ****         byteCount--;
 520              		.loc 1 973 0
 521 0014 013C     		subs	r4, r4, #1
 522              	.LVL21:
 523 0016 E4B2     		uxtb	r4, r4
 524              	.LVL22:
 525              	.L53:
 969:Generated_Source\PSoC5/SPIM_1.c ****     {
 526              		.loc 1 969 0
 527 0018 002C     		cmp	r4, #0
 528 001a F6D1     		bne	.L54
 974:Generated_Source\PSoC5/SPIM_1.c ****     }
 975:Generated_Source\PSoC5/SPIM_1.c **** }
 529              		.loc 1 975 0
 530 001c 70BD     		pop	{r4, r5, r6, pc}
 531              		.cfi_endproc
 532              	.LFE18:
 533              		.size	SPIM_1_PutArray, .-SPIM_1_PutArray
 534 001e 00BF     		.section	.text.SPIM_1_ClearFIFO,"ax",%progbits
 535              		.align	2
 536              		.global	SPIM_1_ClearFIFO
 537              		.thumb
 538              		.thumb_func
 539              		.type	SPIM_1_ClearFIFO, %function
 540              	SPIM_1_ClearFIFO:
 541              	.LFB19:
 976:Generated_Source\PSoC5/SPIM_1.c **** 
 977:Generated_Source\PSoC5/SPIM_1.c **** 
 978:Generated_Source\PSoC5/SPIM_1.c **** /*******************************************************************************
 979:Generated_Source\PSoC5/SPIM_1.c **** * Function Name: SPIM_1_ClearFIFO
 980:Generated_Source\PSoC5/SPIM_1.c **** ********************************************************************************
 981:Generated_Source\PSoC5/SPIM_1.c **** *
 982:Generated_Source\PSoC5/SPIM_1.c **** * Summary:
 983:Generated_Source\PSoC5/SPIM_1.c **** *  Clear the RX and TX FIFO's of all data for a fresh start.
 984:Generated_Source\PSoC5/SPIM_1.c **** *
 985:Generated_Source\PSoC5/SPIM_1.c **** * Parameters:
 986:Generated_Source\PSoC5/SPIM_1.c **** *  None.
 987:Generated_Source\PSoC5/SPIM_1.c **** *
 988:Generated_Source\PSoC5/SPIM_1.c **** * Return:
 989:Generated_Source\PSoC5/SPIM_1.c **** *  None.
 990:Generated_Source\PSoC5/SPIM_1.c **** *
 991:Generated_Source\PSoC5/SPIM_1.c **** * Side Effects:
 992:Generated_Source\PSoC5/SPIM_1.c **** *  Clear status register of the component.
 993:Generated_Source\PSoC5/SPIM_1.c **** *
 994:Generated_Source\PSoC5/SPIM_1.c **** *******************************************************************************/
 995:Generated_Source\PSoC5/SPIM_1.c **** void SPIM_1_ClearFIFO(void) 
ARM GAS  C:\Users\pajoh\AppData\Local\Temp\ccABZ0A6.s 			page 28


 996:Generated_Source\PSoC5/SPIM_1.c **** {
 542              		.loc 1 996 0
 543              		.cfi_startproc
 544              		@ args = 0, pretend = 0, frame = 0
 545              		@ frame_needed = 0, uses_anonymous_args = 0
 546 0000 08B5     		push	{r3, lr}
 547              		.cfi_def_cfa_offset 8
 548              		.cfi_offset 3, -8
 549              		.cfi_offset 14, -4
 997:Generated_Source\PSoC5/SPIM_1.c ****     uint8 enableInterrupts;
 998:Generated_Source\PSoC5/SPIM_1.c **** 
 999:Generated_Source\PSoC5/SPIM_1.c ****     /* Clear Hardware RX FIFO */
1000:Generated_Source\PSoC5/SPIM_1.c ****     while(0u !=(SPIM_1_RX_STATUS_REG & SPIM_1_STS_RX_FIFO_NOT_EMPTY))
 550              		.loc 1 1000 0
 551 0002 01E0     		b	.L57
 552              	.L58:
1001:Generated_Source\PSoC5/SPIM_1.c ****     {
1002:Generated_Source\PSoC5/SPIM_1.c ****         (void) CY_GET_REG8(SPIM_1_RXDATA_PTR);
 553              		.loc 1 1002 0
 554 0004 0A4B     		ldr	r3, .L60
 555 0006 1B78     		ldrb	r3, [r3]	@ zero_extendqisi2
 556              	.L57:
1000:Generated_Source\PSoC5/SPIM_1.c ****     {
 557              		.loc 1 1000 0
 558 0008 0A4B     		ldr	r3, .L60+4
 559 000a 1B78     		ldrb	r3, [r3]	@ zero_extendqisi2
 560 000c 13F0200F 		tst	r3, #32
 561 0010 F8D1     		bne	.L58
1003:Generated_Source\PSoC5/SPIM_1.c ****     }
1004:Generated_Source\PSoC5/SPIM_1.c **** 
1005:Generated_Source\PSoC5/SPIM_1.c ****     enableInterrupts = CyEnterCriticalSection();
 562              		.loc 1 1005 0
 563 0012 FFF7FEFF 		bl	CyEnterCriticalSection
 564              	.LVL23:
1006:Generated_Source\PSoC5/SPIM_1.c ****     /* Clear TX FIFO */
1007:Generated_Source\PSoC5/SPIM_1.c ****     SPIM_1_AUX_CONTROL_DP0_REG |= ((uint8)  SPIM_1_TX_FIFO_CLR);
 565              		.loc 1 1007 0
 566 0016 084B     		ldr	r3, .L60+8
 567 0018 1A78     		ldrb	r2, [r3]	@ zero_extendqisi2
 568 001a 42F00102 		orr	r2, r2, #1
 569 001e 1A70     		strb	r2, [r3]
1008:Generated_Source\PSoC5/SPIM_1.c ****     SPIM_1_AUX_CONTROL_DP0_REG &= ((uint8) ~SPIM_1_TX_FIFO_CLR);
 570              		.loc 1 1008 0
 571 0020 1A78     		ldrb	r2, [r3]	@ zero_extendqisi2
 572 0022 02F0FE02 		and	r2, r2, #254
 573 0026 1A70     		strb	r2, [r3]
1009:Generated_Source\PSoC5/SPIM_1.c **** 
1010:Generated_Source\PSoC5/SPIM_1.c ****     #if(SPIM_1_USE_SECOND_DATAPATH)
1011:Generated_Source\PSoC5/SPIM_1.c ****         /* Clear TX FIFO for 2nd Datapath */
1012:Generated_Source\PSoC5/SPIM_1.c ****         SPIM_1_AUX_CONTROL_DP1_REG |= ((uint8)  SPIM_1_TX_FIFO_CLR);
1013:Generated_Source\PSoC5/SPIM_1.c ****         SPIM_1_AUX_CONTROL_DP1_REG &= ((uint8) ~SPIM_1_TX_FIFO_CLR);
1014:Generated_Source\PSoC5/SPIM_1.c ****     #endif /* (SPIM_1_USE_SECOND_DATAPATH) */
1015:Generated_Source\PSoC5/SPIM_1.c ****     CyExitCriticalSection(enableInterrupts);
 574              		.loc 1 1015 0
 575 0028 FFF7FEFF 		bl	CyExitCriticalSection
 576              	.LVL24:
 577 002c 08BD     		pop	{r3, pc}
ARM GAS  C:\Users\pajoh\AppData\Local\Temp\ccABZ0A6.s 			page 29


 578              	.L61:
 579 002e 00BF     		.align	2
 580              	.L60:
 581 0030 5A640040 		.word	1073767514
 582 0034 6A650040 		.word	1073767786
 583 0038 9A640040 		.word	1073767578
 584              		.cfi_endproc
 585              	.LFE19:
 586              		.size	SPIM_1_ClearFIFO, .-SPIM_1_ClearFIFO
 587              		.section	.text.SPIM_1_Init,"ax",%progbits
 588              		.align	2
 589              		.global	SPIM_1_Init
 590              		.thumb
 591              		.thumb_func
 592              		.type	SPIM_1_Init, %function
 593              	SPIM_1_Init:
 594              	.LFB0:
  64:Generated_Source\PSoC5/SPIM_1.c ****     /* Initialize the Bit counter */
 595              		.loc 1 64 0
 596              		.cfi_startproc
 597              		@ args = 0, pretend = 0, frame = 0
 598              		@ frame_needed = 0, uses_anonymous_args = 0
 599 0000 08B5     		push	{r3, lr}
 600              		.cfi_def_cfa_offset 8
 601              		.cfi_offset 3, -8
 602              		.cfi_offset 14, -4
  66:Generated_Source\PSoC5/SPIM_1.c **** 
 603              		.loc 1 66 0
 604 0002 0F22     		movs	r2, #15
 605 0004 074B     		ldr	r3, .L64
 606 0006 1A70     		strb	r2, [r3]
  83:Generated_Source\PSoC5/SPIM_1.c **** 
 607              		.loc 1 83 0
 608 0008 FFF7FEFF 		bl	SPIM_1_ClearFIFO
 609              	.LVL25:
  97:Generated_Source\PSoC5/SPIM_1.c ****     (void) SPIM_1_ReadRxStatus(); /* Clear Rx status and swStatusRx */
 610              		.loc 1 97 0
 611 000c FFF7FEFF 		bl	SPIM_1_ReadTxStatus
 612              	.LVL26:
  98:Generated_Source\PSoC5/SPIM_1.c **** 
 613              		.loc 1 98 0
 614 0010 FFF7FEFF 		bl	SPIM_1_ReadRxStatus
 615              	.LVL27:
 101:Generated_Source\PSoC5/SPIM_1.c ****     SPIM_1_RX_STATUS_MASK_REG = SPIM_1_RX_INIT_INTERRUPTS_MASK;
 616              		.loc 1 101 0
 617 0014 0023     		movs	r3, #0
 618 0016 044A     		ldr	r2, .L64+4
 619 0018 1370     		strb	r3, [r2]
 102:Generated_Source\PSoC5/SPIM_1.c **** }
 620              		.loc 1 102 0
 621 001a 02F58072 		add	r2, r2, #256
 622 001e 1370     		strb	r3, [r2]
 623 0020 08BD     		pop	{r3, pc}
 624              	.L65:
 625 0022 00BF     		.align	2
 626              	.L64:
 627 0024 89640040 		.word	1073767561
ARM GAS  C:\Users\pajoh\AppData\Local\Temp\ccABZ0A6.s 			page 30


 628 0028 8A640040 		.word	1073767562
 629              		.cfi_endproc
 630              	.LFE0:
 631              		.size	SPIM_1_Init, .-SPIM_1_Init
 632              		.section	.text.SPIM_1_Start,"ax",%progbits
 633              		.align	2
 634              		.global	SPIM_1_Start
 635              		.thumb
 636              		.thumb_func
 637              		.type	SPIM_1_Start, %function
 638              	SPIM_1_Start:
 639              	.LFB2:
 164:Generated_Source\PSoC5/SPIM_1.c ****     if(0u == SPIM_1_initVar)
 640              		.loc 1 164 0
 641              		.cfi_startproc
 642              		@ args = 0, pretend = 0, frame = 0
 643              		@ frame_needed = 0, uses_anonymous_args = 0
 644 0000 08B5     		push	{r3, lr}
 645              		.cfi_def_cfa_offset 8
 646              		.cfi_offset 3, -8
 647              		.cfi_offset 14, -4
 165:Generated_Source\PSoC5/SPIM_1.c ****     {
 648              		.loc 1 165 0
 649 0002 054B     		ldr	r3, .L69
 650 0004 1B78     		ldrb	r3, [r3]	@ zero_extendqisi2
 651 0006 23B9     		cbnz	r3, .L67
 167:Generated_Source\PSoC5/SPIM_1.c ****         SPIM_1_initVar = 1u;
 652              		.loc 1 167 0
 653 0008 FFF7FEFF 		bl	SPIM_1_Init
 654              	.LVL28:
 168:Generated_Source\PSoC5/SPIM_1.c ****     }
 655              		.loc 1 168 0
 656 000c 0122     		movs	r2, #1
 657 000e 024B     		ldr	r3, .L69
 658 0010 1A70     		strb	r2, [r3]
 659              	.L67:
 171:Generated_Source\PSoC5/SPIM_1.c **** }
 660              		.loc 1 171 0
 661 0012 FFF7FEFF 		bl	SPIM_1_Enable
 662              	.LVL29:
 663 0016 08BD     		pop	{r3, pc}
 664              	.L70:
 665              		.align	2
 666              	.L69:
 667 0018 00000000 		.word	.LANCHOR0
 668              		.cfi_endproc
 669              	.LFE2:
 670              		.size	SPIM_1_Start, .-SPIM_1_Start
 671              		.section	.text.SPIM_1_EnableInt,"ax",%progbits
 672              		.align	2
 673              		.global	SPIM_1_EnableInt
 674              		.thumb
 675              		.thumb_func
 676              		.type	SPIM_1_EnableInt, %function
 677              	SPIM_1_EnableInt:
 678              	.LFB20:
1016:Generated_Source\PSoC5/SPIM_1.c **** }
ARM GAS  C:\Users\pajoh\AppData\Local\Temp\ccABZ0A6.s 			page 31


1017:Generated_Source\PSoC5/SPIM_1.c **** 
1018:Generated_Source\PSoC5/SPIM_1.c **** 
1019:Generated_Source\PSoC5/SPIM_1.c **** /* Following functions are for version Compatibility, they are obsolete.
1020:Generated_Source\PSoC5/SPIM_1.c **** *  Please do not use it in new projects.
1021:Generated_Source\PSoC5/SPIM_1.c **** */
1022:Generated_Source\PSoC5/SPIM_1.c **** 
1023:Generated_Source\PSoC5/SPIM_1.c **** 
1024:Generated_Source\PSoC5/SPIM_1.c **** /*******************************************************************************
1025:Generated_Source\PSoC5/SPIM_1.c **** * Function Name: SPIM_1_EnableInt
1026:Generated_Source\PSoC5/SPIM_1.c **** ********************************************************************************
1027:Generated_Source\PSoC5/SPIM_1.c **** *
1028:Generated_Source\PSoC5/SPIM_1.c **** * Summary:
1029:Generated_Source\PSoC5/SPIM_1.c **** *  Enable internal interrupt generation.
1030:Generated_Source\PSoC5/SPIM_1.c **** *
1031:Generated_Source\PSoC5/SPIM_1.c **** * Parameters:
1032:Generated_Source\PSoC5/SPIM_1.c **** *  None.
1033:Generated_Source\PSoC5/SPIM_1.c **** *
1034:Generated_Source\PSoC5/SPIM_1.c **** * Return:
1035:Generated_Source\PSoC5/SPIM_1.c **** *  None.
1036:Generated_Source\PSoC5/SPIM_1.c **** *
1037:Generated_Source\PSoC5/SPIM_1.c **** * Theory:
1038:Generated_Source\PSoC5/SPIM_1.c **** *  Enable the internal interrupt output -or- the interrupt component itself.
1039:Generated_Source\PSoC5/SPIM_1.c **** *
1040:Generated_Source\PSoC5/SPIM_1.c **** *******************************************************************************/
1041:Generated_Source\PSoC5/SPIM_1.c **** void SPIM_1_EnableInt(void) 
1042:Generated_Source\PSoC5/SPIM_1.c **** {
 679              		.loc 1 1042 0
 680              		.cfi_startproc
 681              		@ args = 0, pretend = 0, frame = 0
 682              		@ frame_needed = 0, uses_anonymous_args = 0
 683              		@ link register save eliminated.
 684 0000 7047     		bx	lr
 685              		.cfi_endproc
 686              	.LFE20:
 687              		.size	SPIM_1_EnableInt, .-SPIM_1_EnableInt
 688 0002 00BF     		.section	.text.SPIM_1_DisableInt,"ax",%progbits
 689              		.align	2
 690              		.global	SPIM_1_DisableInt
 691              		.thumb
 692              		.thumb_func
 693              		.type	SPIM_1_DisableInt, %function
 694              	SPIM_1_DisableInt:
 695              	.LFB21:
1043:Generated_Source\PSoC5/SPIM_1.c ****     SPIM_1_EnableRxInt();
1044:Generated_Source\PSoC5/SPIM_1.c ****     SPIM_1_EnableTxInt();
1045:Generated_Source\PSoC5/SPIM_1.c **** }
1046:Generated_Source\PSoC5/SPIM_1.c **** 
1047:Generated_Source\PSoC5/SPIM_1.c **** 
1048:Generated_Source\PSoC5/SPIM_1.c **** /*******************************************************************************
1049:Generated_Source\PSoC5/SPIM_1.c **** * Function Name: SPIM_1_DisableInt
1050:Generated_Source\PSoC5/SPIM_1.c **** ********************************************************************************
1051:Generated_Source\PSoC5/SPIM_1.c **** *
1052:Generated_Source\PSoC5/SPIM_1.c **** * Summary:
1053:Generated_Source\PSoC5/SPIM_1.c **** *  Disable internal interrupt generation.
1054:Generated_Source\PSoC5/SPIM_1.c **** *
1055:Generated_Source\PSoC5/SPIM_1.c **** * Parameters:
1056:Generated_Source\PSoC5/SPIM_1.c **** *  None.
ARM GAS  C:\Users\pajoh\AppData\Local\Temp\ccABZ0A6.s 			page 32


1057:Generated_Source\PSoC5/SPIM_1.c **** *
1058:Generated_Source\PSoC5/SPIM_1.c **** * Return:
1059:Generated_Source\PSoC5/SPIM_1.c **** *  None.
1060:Generated_Source\PSoC5/SPIM_1.c **** *
1061:Generated_Source\PSoC5/SPIM_1.c **** * Theory:
1062:Generated_Source\PSoC5/SPIM_1.c **** *  Disable the internal interrupt output -or- the interrupt component itself.
1063:Generated_Source\PSoC5/SPIM_1.c **** *
1064:Generated_Source\PSoC5/SPIM_1.c **** *******************************************************************************/
1065:Generated_Source\PSoC5/SPIM_1.c **** void SPIM_1_DisableInt(void) 
1066:Generated_Source\PSoC5/SPIM_1.c **** {
 696              		.loc 1 1066 0
 697              		.cfi_startproc
 698              		@ args = 0, pretend = 0, frame = 0
 699              		@ frame_needed = 0, uses_anonymous_args = 0
 700              		@ link register save eliminated.
 701 0000 7047     		bx	lr
 702              		.cfi_endproc
 703              	.LFE21:
 704              		.size	SPIM_1_DisableInt, .-SPIM_1_DisableInt
 705 0002 00BF     		.section	.text.SPIM_1_SetInterruptMode,"ax",%progbits
 706              		.align	2
 707              		.global	SPIM_1_SetInterruptMode
 708              		.thumb
 709              		.thumb_func
 710              		.type	SPIM_1_SetInterruptMode, %function
 711              	SPIM_1_SetInterruptMode:
 712              	.LFB22:
1067:Generated_Source\PSoC5/SPIM_1.c ****     SPIM_1_DisableTxInt();
1068:Generated_Source\PSoC5/SPIM_1.c ****     SPIM_1_DisableRxInt();
1069:Generated_Source\PSoC5/SPIM_1.c **** }
1070:Generated_Source\PSoC5/SPIM_1.c **** 
1071:Generated_Source\PSoC5/SPIM_1.c **** 
1072:Generated_Source\PSoC5/SPIM_1.c **** /*******************************************************************************
1073:Generated_Source\PSoC5/SPIM_1.c **** * Function Name: SPIM_1_SetInterruptMode
1074:Generated_Source\PSoC5/SPIM_1.c **** ********************************************************************************
1075:Generated_Source\PSoC5/SPIM_1.c **** *
1076:Generated_Source\PSoC5/SPIM_1.c **** * Summary:
1077:Generated_Source\PSoC5/SPIM_1.c **** *  Configure which status bits trigger an interrupt event.
1078:Generated_Source\PSoC5/SPIM_1.c **** *
1079:Generated_Source\PSoC5/SPIM_1.c **** * Parameters:
1080:Generated_Source\PSoC5/SPIM_1.c **** *  intSrc: An or'd combination of the desired status bit masks (defined in the
1081:Generated_Source\PSoC5/SPIM_1.c **** *  header file).
1082:Generated_Source\PSoC5/SPIM_1.c **** *
1083:Generated_Source\PSoC5/SPIM_1.c **** * Return:
1084:Generated_Source\PSoC5/SPIM_1.c **** *  None.
1085:Generated_Source\PSoC5/SPIM_1.c **** *
1086:Generated_Source\PSoC5/SPIM_1.c **** * Theory:
1087:Generated_Source\PSoC5/SPIM_1.c **** *  Enables the output of specific status bits to the interrupt controller.
1088:Generated_Source\PSoC5/SPIM_1.c **** *
1089:Generated_Source\PSoC5/SPIM_1.c **** *******************************************************************************/
1090:Generated_Source\PSoC5/SPIM_1.c **** void SPIM_1_SetInterruptMode(uint8 intSrc) 
1091:Generated_Source\PSoC5/SPIM_1.c **** {
 713              		.loc 1 1091 0
 714              		.cfi_startproc
 715              		@ args = 0, pretend = 0, frame = 0
 716              		@ frame_needed = 0, uses_anonymous_args = 0
 717              		@ link register save eliminated.
ARM GAS  C:\Users\pajoh\AppData\Local\Temp\ccABZ0A6.s 			page 33


 718              	.LVL30:
1092:Generated_Source\PSoC5/SPIM_1.c ****     SPIM_1_TX_STATUS_MASK_REG  = (intSrc & ((uint8) ~SPIM_1_STS_SPI_IDLE));
 719              		.loc 1 1092 0
 720 0000 00F0EF02 		and	r2, r0, #239
 721 0004 024B     		ldr	r3, .L74
 722 0006 1A70     		strb	r2, [r3]
1093:Generated_Source\PSoC5/SPIM_1.c ****     SPIM_1_RX_STATUS_MASK_REG  =  intSrc;
 723              		.loc 1 1093 0
 724 0008 03F58073 		add	r3, r3, #256
 725 000c 1870     		strb	r0, [r3]
 726 000e 7047     		bx	lr
 727              	.L75:
 728              		.align	2
 729              	.L74:
 730 0010 8A640040 		.word	1073767562
 731              		.cfi_endproc
 732              	.LFE22:
 733              		.size	SPIM_1_SetInterruptMode, .-SPIM_1_SetInterruptMode
 734              		.section	.text.SPIM_1_ReadStatus,"ax",%progbits
 735              		.align	2
 736              		.global	SPIM_1_ReadStatus
 737              		.thumb
 738              		.thumb_func
 739              		.type	SPIM_1_ReadStatus, %function
 740              	SPIM_1_ReadStatus:
 741              	.LFB23:
1094:Generated_Source\PSoC5/SPIM_1.c **** }
1095:Generated_Source\PSoC5/SPIM_1.c **** 
1096:Generated_Source\PSoC5/SPIM_1.c **** 
1097:Generated_Source\PSoC5/SPIM_1.c **** /*******************************************************************************
1098:Generated_Source\PSoC5/SPIM_1.c **** * Function Name: SPIM_1_ReadStatus
1099:Generated_Source\PSoC5/SPIM_1.c **** ********************************************************************************
1100:Generated_Source\PSoC5/SPIM_1.c **** *
1101:Generated_Source\PSoC5/SPIM_1.c **** * Summary:
1102:Generated_Source\PSoC5/SPIM_1.c **** *  Read the status register for the component.
1103:Generated_Source\PSoC5/SPIM_1.c **** *
1104:Generated_Source\PSoC5/SPIM_1.c **** * Parameters:
1105:Generated_Source\PSoC5/SPIM_1.c **** *  None.
1106:Generated_Source\PSoC5/SPIM_1.c **** *
1107:Generated_Source\PSoC5/SPIM_1.c **** * Return:
1108:Generated_Source\PSoC5/SPIM_1.c **** *  Contents of the status register.
1109:Generated_Source\PSoC5/SPIM_1.c **** *
1110:Generated_Source\PSoC5/SPIM_1.c **** * Global variables:
1111:Generated_Source\PSoC5/SPIM_1.c **** *  SPIM_1_swStatus - used to store in software status register,
1112:Generated_Source\PSoC5/SPIM_1.c **** *  modified every function call - resets to zero.
1113:Generated_Source\PSoC5/SPIM_1.c **** *
1114:Generated_Source\PSoC5/SPIM_1.c **** * Theory:
1115:Generated_Source\PSoC5/SPIM_1.c **** *  Allows the user and the API to read the status register for error detection
1116:Generated_Source\PSoC5/SPIM_1.c **** *  and flow control.
1117:Generated_Source\PSoC5/SPIM_1.c **** *
1118:Generated_Source\PSoC5/SPIM_1.c **** * Side Effects:
1119:Generated_Source\PSoC5/SPIM_1.c **** *  Clear status register of the component.
1120:Generated_Source\PSoC5/SPIM_1.c **** *
1121:Generated_Source\PSoC5/SPIM_1.c **** * Reentrant:
1122:Generated_Source\PSoC5/SPIM_1.c **** *  No.
1123:Generated_Source\PSoC5/SPIM_1.c **** *
1124:Generated_Source\PSoC5/SPIM_1.c **** *******************************************************************************/
ARM GAS  C:\Users\pajoh\AppData\Local\Temp\ccABZ0A6.s 			page 34


1125:Generated_Source\PSoC5/SPIM_1.c **** uint8 SPIM_1_ReadStatus(void) 
1126:Generated_Source\PSoC5/SPIM_1.c **** {
 742              		.loc 1 1126 0
 743              		.cfi_startproc
 744              		@ args = 0, pretend = 0, frame = 0
 745              		@ frame_needed = 0, uses_anonymous_args = 0
 746              		@ link register save eliminated.
1127:Generated_Source\PSoC5/SPIM_1.c ****     uint8 tmpStatus;
1128:Generated_Source\PSoC5/SPIM_1.c **** 
1129:Generated_Source\PSoC5/SPIM_1.c ****     #if(SPIM_1_TX_SOFTWARE_BUF_ENABLED || SPIM_1_RX_SOFTWARE_BUF_ENABLED)
1130:Generated_Source\PSoC5/SPIM_1.c **** 
1131:Generated_Source\PSoC5/SPIM_1.c ****         SPIM_1_DisableInt();
1132:Generated_Source\PSoC5/SPIM_1.c **** 
1133:Generated_Source\PSoC5/SPIM_1.c ****         tmpStatus  = SPIM_1_GET_STATUS_RX(SPIM_1_swStatusRx);
1134:Generated_Source\PSoC5/SPIM_1.c ****         tmpStatus |= SPIM_1_GET_STATUS_TX(SPIM_1_swStatusTx);
1135:Generated_Source\PSoC5/SPIM_1.c ****         tmpStatus &= ((uint8) ~SPIM_1_STS_SPI_IDLE);
1136:Generated_Source\PSoC5/SPIM_1.c **** 
1137:Generated_Source\PSoC5/SPIM_1.c ****         SPIM_1_swStatusTx = 0u;
1138:Generated_Source\PSoC5/SPIM_1.c ****         SPIM_1_swStatusRx = 0u;
1139:Generated_Source\PSoC5/SPIM_1.c **** 
1140:Generated_Source\PSoC5/SPIM_1.c ****         SPIM_1_EnableInt();
1141:Generated_Source\PSoC5/SPIM_1.c **** 
1142:Generated_Source\PSoC5/SPIM_1.c ****     #else
1143:Generated_Source\PSoC5/SPIM_1.c **** 
1144:Generated_Source\PSoC5/SPIM_1.c ****         tmpStatus  = SPIM_1_RX_STATUS_REG;
 747              		.loc 1 1144 0
 748 0000 034B     		ldr	r3, .L77
 749 0002 1B78     		ldrb	r3, [r3]	@ zero_extendqisi2
 750              	.LVL31:
1145:Generated_Source\PSoC5/SPIM_1.c ****         tmpStatus |= SPIM_1_TX_STATUS_REG;
 751              		.loc 1 1145 0
 752 0004 034A     		ldr	r2, .L77+4
 753 0006 1078     		ldrb	r0, [r2]	@ zero_extendqisi2
 754 0008 1843     		orrs	r0, r0, r3
 755              	.LVL32:
1146:Generated_Source\PSoC5/SPIM_1.c ****         tmpStatus &= ((uint8) ~SPIM_1_STS_SPI_IDLE);
1147:Generated_Source\PSoC5/SPIM_1.c **** 
1148:Generated_Source\PSoC5/SPIM_1.c ****     #endif /* (SPIM_1_TX_SOFTWARE_BUF_ENABLED || SPIM_1_RX_SOFTWARE_BUF_ENABLED) */
1149:Generated_Source\PSoC5/SPIM_1.c **** 
1150:Generated_Source\PSoC5/SPIM_1.c ****     return(tmpStatus);
1151:Generated_Source\PSoC5/SPIM_1.c **** }
 756              		.loc 1 1151 0
 757 000a 00F0EF00 		and	r0, r0, #239
 758              	.LVL33:
 759 000e 7047     		bx	lr
 760              	.L78:
 761              		.align	2
 762              	.L77:
 763 0010 6A650040 		.word	1073767786
 764 0014 6A640040 		.word	1073767530
 765              		.cfi_endproc
 766              	.LFE23:
 767              		.size	SPIM_1_ReadStatus, .-SPIM_1_ReadStatus
 768              		.comm	SPIM_1_swStatusRx,1,1
 769              		.comm	SPIM_1_swStatusTx,1,1
 770              		.global	SPIM_1_initVar
 771              		.bss
ARM GAS  C:\Users\pajoh\AppData\Local\Temp\ccABZ0A6.s 			page 35


 772              		.set	.LANCHOR0,. + 0
 773              		.type	SPIM_1_initVar, %object
 774              		.size	SPIM_1_initVar, 1
 775              	SPIM_1_initVar:
 776 0000 00       		.space	1
 777              		.text
 778              	.Letext0:
 779              		.file 2 "Generated_Source\\PSoC5\\cytypes.h"
 780              		.file 3 "Generated_Source\\PSoC5\\CyLib.h"