ARM GAS  C:\Users\pajoh\AppData\Local\Temp\ccYmRKnf.s 			page 1


   1              		.syntax unified
   2              		.cpu cortex-m3
   3              		.fpu softvfp
   4              		.eabi_attribute 20, 1
   5              		.eabi_attribute 21, 1
   6              		.eabi_attribute 23, 3
   7              		.eabi_attribute 24, 1
   8              		.eabi_attribute 25, 1
   9              		.eabi_attribute 26, 1
  10              		.eabi_attribute 30, 1
  11              		.eabi_attribute 34, 1
  12              		.eabi_attribute 18, 4
  13              		.thumb
  14              		.syntax unified
  15              		.file	"tick_isr.c"
  16              		.text
  17              	.Ltext0:
  18              		.cfi_sections	.debug_frame
  19              		.section	.text.tick_isr_Interrupt,"ax",%progbits
  20              		.align	2
  21              		.global	tick_isr_Interrupt
  22              		.thumb
  23              		.thumb_func
  24              		.type	tick_isr_Interrupt, %function
  25              	tick_isr_Interrupt:
  26              	.LFB67:
  27              		.file 1 "Generated_Source\\PSoC5\\tick_isr.c"
   1:Generated_Source\PSoC5/tick_isr.c **** /*******************************************************************************
   2:Generated_Source\PSoC5/tick_isr.c **** * File Name: tick_isr.c  
   3:Generated_Source\PSoC5/tick_isr.c **** * Version 1.70
   4:Generated_Source\PSoC5/tick_isr.c **** *
   5:Generated_Source\PSoC5/tick_isr.c **** *  Description:
   6:Generated_Source\PSoC5/tick_isr.c **** *   API for controlling the state of an interrupt.
   7:Generated_Source\PSoC5/tick_isr.c **** *
   8:Generated_Source\PSoC5/tick_isr.c **** *
   9:Generated_Source\PSoC5/tick_isr.c **** *  Note:
  10:Generated_Source\PSoC5/tick_isr.c **** *
  11:Generated_Source\PSoC5/tick_isr.c **** ********************************************************************************
  12:Generated_Source\PSoC5/tick_isr.c **** * Copyright 2008-2015, Cypress Semiconductor Corporation.  All rights reserved.
  13:Generated_Source\PSoC5/tick_isr.c **** * You may use this file only in accordance with the license, terms, conditions, 
  14:Generated_Source\PSoC5/tick_isr.c **** * disclaimers, and limitations in the end user license agreement accompanying 
  15:Generated_Source\PSoC5/tick_isr.c **** * the software package with which this file was provided.
  16:Generated_Source\PSoC5/tick_isr.c **** *******************************************************************************/
  17:Generated_Source\PSoC5/tick_isr.c **** 
  18:Generated_Source\PSoC5/tick_isr.c **** 
  19:Generated_Source\PSoC5/tick_isr.c **** #include <cydevice_trm.h>
  20:Generated_Source\PSoC5/tick_isr.c **** #include <CyLib.h>
  21:Generated_Source\PSoC5/tick_isr.c **** #include <tick_isr.h>
  22:Generated_Source\PSoC5/tick_isr.c **** #include "cyapicallbacks.h"
  23:Generated_Source\PSoC5/tick_isr.c **** 
  24:Generated_Source\PSoC5/tick_isr.c **** #if !defined(tick_isr__REMOVED) /* Check for removal by optimization */
  25:Generated_Source\PSoC5/tick_isr.c **** 
  26:Generated_Source\PSoC5/tick_isr.c **** /*******************************************************************************
  27:Generated_Source\PSoC5/tick_isr.c **** *  Place your includes, defines and code here 
  28:Generated_Source\PSoC5/tick_isr.c **** ********************************************************************************/
  29:Generated_Source\PSoC5/tick_isr.c **** /* `#START tick_isr_intc` */
  30:Generated_Source\PSoC5/tick_isr.c **** #include "project.h"
ARM GAS  C:\Users\pajoh\AppData\Local\Temp\ccYmRKnf.s 			page 2


  31:Generated_Source\PSoC5/tick_isr.c **** #include "joints.h"
  32:Generated_Source\PSoC5/tick_isr.c **** extern volatile char tick;
  33:Generated_Source\PSoC5/tick_isr.c **** char tick2 = 0;
  34:Generated_Source\PSoC5/tick_isr.c **** /* `#END` */
  35:Generated_Source\PSoC5/tick_isr.c **** 
  36:Generated_Source\PSoC5/tick_isr.c **** #ifndef CYINT_IRQ_BASE
  37:Generated_Source\PSoC5/tick_isr.c **** #define CYINT_IRQ_BASE      16
  38:Generated_Source\PSoC5/tick_isr.c **** #endif /* CYINT_IRQ_BASE */
  39:Generated_Source\PSoC5/tick_isr.c **** #ifndef CYINT_VECT_TABLE
  40:Generated_Source\PSoC5/tick_isr.c **** #define CYINT_VECT_TABLE    ((cyisraddress **) CYREG_NVIC_VECT_OFFSET)
  41:Generated_Source\PSoC5/tick_isr.c **** #endif /* CYINT_VECT_TABLE */
  42:Generated_Source\PSoC5/tick_isr.c **** 
  43:Generated_Source\PSoC5/tick_isr.c **** /* Declared in startup, used to set unused interrupts to. */
  44:Generated_Source\PSoC5/tick_isr.c **** CY_ISR_PROTO(IntDefaultHandler);
  45:Generated_Source\PSoC5/tick_isr.c **** 
  46:Generated_Source\PSoC5/tick_isr.c **** 
  47:Generated_Source\PSoC5/tick_isr.c **** /*******************************************************************************
  48:Generated_Source\PSoC5/tick_isr.c **** * Function Name: tick_isr_Start
  49:Generated_Source\PSoC5/tick_isr.c **** ********************************************************************************
  50:Generated_Source\PSoC5/tick_isr.c **** *
  51:Generated_Source\PSoC5/tick_isr.c **** * Summary:
  52:Generated_Source\PSoC5/tick_isr.c **** *  Set up the interrupt and enable it. This function disables the interrupt, 
  53:Generated_Source\PSoC5/tick_isr.c **** *  sets the default interrupt vector, sets the priority from the value in the
  54:Generated_Source\PSoC5/tick_isr.c **** *  Design Wide Resources Interrupt Editor, then enables the interrupt to the 
  55:Generated_Source\PSoC5/tick_isr.c **** *  interrupt controller.
  56:Generated_Source\PSoC5/tick_isr.c **** *
  57:Generated_Source\PSoC5/tick_isr.c **** * Parameters:  
  58:Generated_Source\PSoC5/tick_isr.c **** *   None
  59:Generated_Source\PSoC5/tick_isr.c **** *
  60:Generated_Source\PSoC5/tick_isr.c **** * Return:
  61:Generated_Source\PSoC5/tick_isr.c **** *   None
  62:Generated_Source\PSoC5/tick_isr.c **** *
  63:Generated_Source\PSoC5/tick_isr.c **** *******************************************************************************/
  64:Generated_Source\PSoC5/tick_isr.c **** void tick_isr_Start(void)
  65:Generated_Source\PSoC5/tick_isr.c **** {
  66:Generated_Source\PSoC5/tick_isr.c ****     /* For all we know the interrupt is active. */
  67:Generated_Source\PSoC5/tick_isr.c ****     tick_isr_Disable();
  68:Generated_Source\PSoC5/tick_isr.c **** 
  69:Generated_Source\PSoC5/tick_isr.c ****     /* Set the ISR to point to the tick_isr Interrupt. */
  70:Generated_Source\PSoC5/tick_isr.c ****     tick_isr_SetVector(&tick_isr_Interrupt);
  71:Generated_Source\PSoC5/tick_isr.c **** 
  72:Generated_Source\PSoC5/tick_isr.c ****     /* Set the priority. */
  73:Generated_Source\PSoC5/tick_isr.c ****     tick_isr_SetPriority((uint8)tick_isr_INTC_PRIOR_NUMBER);
  74:Generated_Source\PSoC5/tick_isr.c **** 
  75:Generated_Source\PSoC5/tick_isr.c ****     /* Enable it. */
  76:Generated_Source\PSoC5/tick_isr.c ****     tick_isr_Enable();
  77:Generated_Source\PSoC5/tick_isr.c **** }
  78:Generated_Source\PSoC5/tick_isr.c **** 
  79:Generated_Source\PSoC5/tick_isr.c **** 
  80:Generated_Source\PSoC5/tick_isr.c **** /*******************************************************************************
  81:Generated_Source\PSoC5/tick_isr.c **** * Function Name: tick_isr_StartEx
  82:Generated_Source\PSoC5/tick_isr.c **** ********************************************************************************
  83:Generated_Source\PSoC5/tick_isr.c **** *
  84:Generated_Source\PSoC5/tick_isr.c **** * Summary:
  85:Generated_Source\PSoC5/tick_isr.c **** *  Sets up the interrupt and enables it. This function disables the interrupt,
  86:Generated_Source\PSoC5/tick_isr.c **** *  sets the interrupt vector based on the address passed in, sets the priority 
  87:Generated_Source\PSoC5/tick_isr.c **** *  from the value in the Design Wide Resources Interrupt Editor, then enables 
ARM GAS  C:\Users\pajoh\AppData\Local\Temp\ccYmRKnf.s 			page 3


  88:Generated_Source\PSoC5/tick_isr.c **** *  the interrupt to the interrupt controller.
  89:Generated_Source\PSoC5/tick_isr.c **** *  
  90:Generated_Source\PSoC5/tick_isr.c **** *  When defining ISR functions, the CY_ISR and CY_ISR_PROTO macros should be 
  91:Generated_Source\PSoC5/tick_isr.c **** *  used to provide consistent definition across compilers:
  92:Generated_Source\PSoC5/tick_isr.c **** *  
  93:Generated_Source\PSoC5/tick_isr.c **** *  Function definition example:
  94:Generated_Source\PSoC5/tick_isr.c **** *   CY_ISR(MyISR)
  95:Generated_Source\PSoC5/tick_isr.c **** *   {
  96:Generated_Source\PSoC5/tick_isr.c **** *   }
  97:Generated_Source\PSoC5/tick_isr.c **** *   Function prototype example:
  98:Generated_Source\PSoC5/tick_isr.c **** *   CY_ISR_PROTO(MyISR);
  99:Generated_Source\PSoC5/tick_isr.c **** *
 100:Generated_Source\PSoC5/tick_isr.c **** * Parameters:  
 101:Generated_Source\PSoC5/tick_isr.c **** *   address: Address of the ISR to set in the interrupt vector table.
 102:Generated_Source\PSoC5/tick_isr.c **** *
 103:Generated_Source\PSoC5/tick_isr.c **** * Return:
 104:Generated_Source\PSoC5/tick_isr.c **** *   None
 105:Generated_Source\PSoC5/tick_isr.c **** *
 106:Generated_Source\PSoC5/tick_isr.c **** *******************************************************************************/
 107:Generated_Source\PSoC5/tick_isr.c **** void tick_isr_StartEx(cyisraddress address)
 108:Generated_Source\PSoC5/tick_isr.c **** {
 109:Generated_Source\PSoC5/tick_isr.c ****     /* For all we know the interrupt is active. */
 110:Generated_Source\PSoC5/tick_isr.c ****     tick_isr_Disable();
 111:Generated_Source\PSoC5/tick_isr.c **** 
 112:Generated_Source\PSoC5/tick_isr.c ****     /* Set the ISR to point to the tick_isr Interrupt. */
 113:Generated_Source\PSoC5/tick_isr.c ****     tick_isr_SetVector(address);
 114:Generated_Source\PSoC5/tick_isr.c **** 
 115:Generated_Source\PSoC5/tick_isr.c ****     /* Set the priority. */
 116:Generated_Source\PSoC5/tick_isr.c ****     tick_isr_SetPriority((uint8)tick_isr_INTC_PRIOR_NUMBER);
 117:Generated_Source\PSoC5/tick_isr.c **** 
 118:Generated_Source\PSoC5/tick_isr.c ****     /* Enable it. */
 119:Generated_Source\PSoC5/tick_isr.c ****     tick_isr_Enable();
 120:Generated_Source\PSoC5/tick_isr.c **** }
 121:Generated_Source\PSoC5/tick_isr.c **** 
 122:Generated_Source\PSoC5/tick_isr.c **** 
 123:Generated_Source\PSoC5/tick_isr.c **** /*******************************************************************************
 124:Generated_Source\PSoC5/tick_isr.c **** * Function Name: tick_isr_Stop
 125:Generated_Source\PSoC5/tick_isr.c **** ********************************************************************************
 126:Generated_Source\PSoC5/tick_isr.c **** *
 127:Generated_Source\PSoC5/tick_isr.c **** * Summary:
 128:Generated_Source\PSoC5/tick_isr.c **** *   Disables and removes the interrupt.
 129:Generated_Source\PSoC5/tick_isr.c **** *
 130:Generated_Source\PSoC5/tick_isr.c **** * Parameters:  
 131:Generated_Source\PSoC5/tick_isr.c **** *   None
 132:Generated_Source\PSoC5/tick_isr.c **** *
 133:Generated_Source\PSoC5/tick_isr.c **** * Return:
 134:Generated_Source\PSoC5/tick_isr.c **** *   None
 135:Generated_Source\PSoC5/tick_isr.c **** *
 136:Generated_Source\PSoC5/tick_isr.c **** *******************************************************************************/
 137:Generated_Source\PSoC5/tick_isr.c **** void tick_isr_Stop(void)
 138:Generated_Source\PSoC5/tick_isr.c **** {
 139:Generated_Source\PSoC5/tick_isr.c ****     /* Disable this interrupt. */
 140:Generated_Source\PSoC5/tick_isr.c ****     tick_isr_Disable();
 141:Generated_Source\PSoC5/tick_isr.c **** 
 142:Generated_Source\PSoC5/tick_isr.c ****     /* Set the ISR to point to the passive one. */
 143:Generated_Source\PSoC5/tick_isr.c ****     tick_isr_SetVector(&IntDefaultHandler);
 144:Generated_Source\PSoC5/tick_isr.c **** }
ARM GAS  C:\Users\pajoh\AppData\Local\Temp\ccYmRKnf.s 			page 4


 145:Generated_Source\PSoC5/tick_isr.c **** 
 146:Generated_Source\PSoC5/tick_isr.c **** 
 147:Generated_Source\PSoC5/tick_isr.c **** /*******************************************************************************
 148:Generated_Source\PSoC5/tick_isr.c **** * Function Name: tick_isr_Interrupt
 149:Generated_Source\PSoC5/tick_isr.c **** ********************************************************************************
 150:Generated_Source\PSoC5/tick_isr.c **** *
 151:Generated_Source\PSoC5/tick_isr.c **** * Summary:
 152:Generated_Source\PSoC5/tick_isr.c **** *   The default Interrupt Service Routine for tick_isr.
 153:Generated_Source\PSoC5/tick_isr.c **** *
 154:Generated_Source\PSoC5/tick_isr.c **** *   Add custom code between the coments to keep the next version of this file
 155:Generated_Source\PSoC5/tick_isr.c **** *   from over writting your code.
 156:Generated_Source\PSoC5/tick_isr.c **** *
 157:Generated_Source\PSoC5/tick_isr.c **** * Parameters:  
 158:Generated_Source\PSoC5/tick_isr.c **** *
 159:Generated_Source\PSoC5/tick_isr.c **** * Return:
 160:Generated_Source\PSoC5/tick_isr.c **** *   None
 161:Generated_Source\PSoC5/tick_isr.c **** *
 162:Generated_Source\PSoC5/tick_isr.c **** *******************************************************************************/
 163:Generated_Source\PSoC5/tick_isr.c **** CY_ISR(tick_isr_Interrupt)
 164:Generated_Source\PSoC5/tick_isr.c **** {
  28              		.loc 1 164 0
  29              		.cfi_startproc
  30              		@ args = 0, pretend = 0, frame = 0
  31              		@ frame_needed = 0, uses_anonymous_args = 0
  32 0000 10B5     		push	{r4, lr}
  33              		.cfi_def_cfa_offset 8
  34              		.cfi_offset 4, -8
  35              		.cfi_offset 14, -4
 165:Generated_Source\PSoC5/tick_isr.c ****     #ifdef tick_isr_INTERRUPT_INTERRUPT_CALLBACK
 166:Generated_Source\PSoC5/tick_isr.c ****         tick_isr_Interrupt_InterruptCallback();
 167:Generated_Source\PSoC5/tick_isr.c ****     #endif /* tick_isr_INTERRUPT_INTERRUPT_CALLBACK */ 
 168:Generated_Source\PSoC5/tick_isr.c **** 
 169:Generated_Source\PSoC5/tick_isr.c ****     /*  Place your Interrupt code here. */
 170:Generated_Source\PSoC5/tick_isr.c ****     /* `#START tick_isr_Interrupt` */
 171:Generated_Source\PSoC5/tick_isr.c ****    
 172:Generated_Source\PSoC5/tick_isr.c ****     //update position values, limit switch values
 173:Generated_Source\PSoC5/tick_isr.c ****     //joint 1, position and limit are special (analog pot)
 174:Generated_Source\PSoC5/tick_isr.c ****     //want some lowpass filtering on this
 175:Generated_Source\PSoC5/tick_isr.c ****     if(ADC_DelSig_1_IsEndConversion(ADC_DelSig_1_WAIT_FOR_RESULT)){
  36              		.loc 1 175 0
  37 0002 0020     		movs	r0, #0
  38 0004 FFF7FEFF 		bl	ADC_DelSig_1_IsEndConversion
  39              	.LVL0:
  40 0008 68B1     		cbz	r0, .L2
 176:Generated_Source\PSoC5/tick_isr.c ****         joints[0].pos = (joints[0].pos + 15*ADC_DelSig_1_CountsTo_uVolts(ADC_DelSig_1_GetResult32()
  41              		.loc 1 176 0
  42 000a 6C4B     		ldr	r3, .L16
  43 000c 9C68     		ldr	r4, [r3, #8]
  44 000e FFF7FEFF 		bl	ADC_DelSig_1_GetResult32
  45              	.LVL1:
  46 0012 FFF7FEFF 		bl	ADC_DelSig_1_CountsTo_uVolts
  47              	.LVL2:
  48 0016 C0EB0010 		rsb	r0, r0, r0, lsl #4
  49 001a 2418     		adds	r4, r4, r0
  50 001c 00D5     		bpl	.L3
  51 001e 0F34     		adds	r4, r4, #15
  52              	.L3:
ARM GAS  C:\Users\pajoh\AppData\Local\Temp\ccYmRKnf.s 			page 5


  53 0020 2411     		asrs	r4, r4, #4
  54 0022 664B     		ldr	r3, .L16
  55 0024 9C60     		str	r4, [r3, #8]
  56              	.L2:
 177:Generated_Source\PSoC5/tick_isr.c ****     }
 178:Generated_Source\PSoC5/tick_isr.c ****     if(joints[0].pos < J1_HOME + 10 && joints[0].pos > J1_HOME - 10){
  57              		.loc 1 178 0
  58 0026 654B     		ldr	r3, .L16
  59 0028 9A68     		ldr	r2, [r3, #8]
  60 002a 654B     		ldr	r3, .L16+4
  61 002c 9A42     		cmp	r2, r3
  62 002e 08DC     		bgt	.L4
  63              		.loc 1 178 0 is_stmt 0 discriminator 1
  64 0030 624B     		ldr	r3, .L16
  65 0032 9A68     		ldr	r2, [r3, #8]
  66 0034 634B     		ldr	r3, .L16+8
  67 0036 9A42     		cmp	r2, r3
  68 0038 03DD     		ble	.L4
 179:Generated_Source\PSoC5/tick_isr.c ****         joints[0].limit = 1;
  69              		.loc 1 179 0 is_stmt 1
  70 003a 0122     		movs	r2, #1
  71 003c 5F4B     		ldr	r3, .L16
  72 003e 1A74     		strb	r2, [r3, #16]
  73 0040 02E0     		b	.L5
  74              	.L4:
 180:Generated_Source\PSoC5/tick_isr.c ****     }
 181:Generated_Source\PSoC5/tick_isr.c ****     else{
 182:Generated_Source\PSoC5/tick_isr.c ****         joints[0].limit = 0;   
  75              		.loc 1 182 0
  76 0042 0022     		movs	r2, #0
  77 0044 5D4B     		ldr	r3, .L16
  78 0046 1A74     		strb	r2, [r3, #16]
  79              	.L5:
 183:Generated_Source\PSoC5/tick_isr.c ****     }
 184:Generated_Source\PSoC5/tick_isr.c ****     //joint 2, limit is switch and position is SPI encoder
 185:Generated_Source\PSoC5/tick_isr.c ****     //need wrapping for position
 186:Generated_Source\PSoC5/tick_isr.c ****     joints[1].limit = !(J2_LIM_Read());
  80              		.loc 1 186 0
  81 0048 FFF7FEFF 		bl	J2_LIM_Read
  82              	.LVL3:
  83 004c B0FA80F0 		clz	r0, r0
  84 0050 4009     		lsrs	r0, r0, #5
  85 0052 5A4C     		ldr	r4, .L16
  86 0054 84F83000 		strb	r0, [r4, #48]
 187:Generated_Source\PSoC5/tick_isr.c ****     joints[1].angle = send_cmd(SPI_ANGLE|SPI_CMD_READ,0) & 0x3FFF;
  87              		.loc 1 187 0
  88 0058 0021     		movs	r1, #0
  89 005a 47F6FF70 		movw	r0, #32767
  90 005e FFF7FEFF 		bl	send_cmd
  91              	.LVL4:
  92 0062 C0F30D00 		ubfx	r0, r0, #0, #14
  93 0066 2087     		strh	r0, [r4, #56]	@ movhi
 188:Generated_Source\PSoC5/tick_isr.c ****     if(joints[1].angle - joints[1].angleOld > 10000){
  94              		.loc 1 188 0
  95 0068 238F     		ldrh	r3, [r4, #56]
  96 006a 1AB2     		sxth	r2, r3
  97 006c 638F     		ldrh	r3, [r4, #58]
ARM GAS  C:\Users\pajoh\AppData\Local\Temp\ccYmRKnf.s 			page 6


  98 006e 1BB2     		sxth	r3, r3
  99 0070 D31A     		subs	r3, r2, r3
 100 0072 42F21072 		movw	r2, #10000
 101 0076 9342     		cmp	r3, r2
 102 0078 0ADD     		ble	.L6
 189:Generated_Source\PSoC5/tick_isr.c ****         //angle decreasing, crossed over 0
 190:Generated_Source\PSoC5/tick_isr.c ****         joints[1].pos = joints[1].pos + (joints[1].angle - (joints[1].angleOld + 16384));
 103              		.loc 1 190 0
 104 007a A06A     		ldr	r0, [r4, #40]
 105 007c 228F     		ldrh	r2, [r4, #56]
 106 007e 12B2     		sxth	r2, r2
 107 0080 638F     		ldrh	r3, [r4, #58]
 108 0082 1BB2     		sxth	r3, r3
 109 0084 03F58043 		add	r3, r3, #16384
 110 0088 D31A     		subs	r3, r2, r3
 111 008a 0344     		add	r3, r3, r0
 112 008c A362     		str	r3, [r4, #40]
 113 008e 28E0     		b	.L7
 114              	.L6:
 191:Generated_Source\PSoC5/tick_isr.c ****     }
 192:Generated_Source\PSoC5/tick_isr.c ****     else if(joints[1].angle - joints[1].angleOld < -10000){
 115              		.loc 1 192 0
 116 0090 4A49     		ldr	r1, .L16
 117 0092 0B8F     		ldrh	r3, [r1, #56]
 118 0094 1AB2     		sxth	r2, r3
 119 0096 4B8F     		ldrh	r3, [r1, #58]
 120 0098 1BB2     		sxth	r3, r3
 121 009a D31A     		subs	r3, r2, r3
 122 009c 4A4A     		ldr	r2, .L16+12
 123 009e 9342     		cmp	r3, r2
 124 00a0 16DA     		bge	.L8
 193:Generated_Source\PSoC5/tick_isr.c ****         joints[1].pos = joints[1].pos + ((joints[1].angle - joints[1].angleOld) + 16384) % 16384;
 125              		.loc 1 193 0
 126 00a2 0846     		mov	r0, r1
 127 00a4 8C6A     		ldr	r4, [r1, #40]
 128 00a6 0A8F     		ldrh	r2, [r1, #56]
 129 00a8 11B2     		sxth	r1, r2
 130 00aa 428F     		ldrh	r2, [r0, #58]
 131 00ac 12B2     		sxth	r2, r2
 132 00ae 8A1A     		subs	r2, r1, r2
 133 00b0 02F58042 		add	r2, r2, #16384
 134 00b4 454B     		ldr	r3, .L16+16
 135 00b6 1340     		ands	r3, r3, r2
 136 00b8 002B     		cmp	r3, #0
 137 00ba 05DA     		bge	.L9
 138 00bc 013B     		subs	r3, r3, #1
 139 00be 6FEA8342 		mvn	r2, r3, lsl #18
 140 00c2 6FEA9242 		mvn	r2, r2, lsr #18
 141 00c6 531C     		adds	r3, r2, #1
 142              	.L9:
 143 00c8 2344     		add	r3, r3, r4
 144 00ca 3C4A     		ldr	r2, .L16
 145 00cc 9362     		str	r3, [r2, #40]
 146 00ce 08E0     		b	.L7
 147              	.L8:
 194:Generated_Source\PSoC5/tick_isr.c ****     }
 195:Generated_Source\PSoC5/tick_isr.c ****     else{
ARM GAS  C:\Users\pajoh\AppData\Local\Temp\ccYmRKnf.s 			page 7


 196:Generated_Source\PSoC5/tick_isr.c ****         joints[1].pos = joints[1].pos + joints[1].angle - joints[1].angleOld;   
 148              		.loc 1 196 0
 149 00d0 3A48     		ldr	r0, .L16
 150 00d2 816A     		ldr	r1, [r0, #40]
 151 00d4 038F     		ldrh	r3, [r0, #56]
 152 00d6 1BB2     		sxth	r3, r3
 153 00d8 5A18     		adds	r2, r3, r1
 154 00da 438F     		ldrh	r3, [r0, #58]
 155 00dc 1BB2     		sxth	r3, r3
 156 00de D31A     		subs	r3, r2, r3
 157 00e0 8362     		str	r3, [r0, #40]
 158              	.L7:
 197:Generated_Source\PSoC5/tick_isr.c ****     }
 198:Generated_Source\PSoC5/tick_isr.c ****     joints[1].angleOld = joints[1].angle;
 159              		.loc 1 198 0
 160 00e2 364C     		ldr	r4, .L16
 161 00e4 238F     		ldrh	r3, [r4, #56]
 162 00e6 6387     		strh	r3, [r4, #58]	@ movhi
 199:Generated_Source\PSoC5/tick_isr.c ****     
 200:Generated_Source\PSoC5/tick_isr.c ****     
 201:Generated_Source\PSoC5/tick_isr.c ****     
 202:Generated_Source\PSoC5/tick_isr.c ****     //joint 3, limit is switch and position is SPI encoder
 203:Generated_Source\PSoC5/tick_isr.c ****     joints[2].limit = !(J3_LIM_Read());
 163              		.loc 1 203 0
 164 00e8 FFF7FEFF 		bl	J3_LIM_Read
 165              	.LVL5:
 166 00ec B0FA80F0 		clz	r0, r0
 167 00f0 4009     		lsrs	r0, r0, #5
 168 00f2 84F85000 		strb	r0, [r4, #80]
 204:Generated_Source\PSoC5/tick_isr.c ****     joints[2].angle = send_cmd(SPI_ANGLE|SPI_CMD_READ,1) & 0x3FFF;
 169              		.loc 1 204 0
 170 00f6 0121     		movs	r1, #1
 171 00f8 47F6FF70 		movw	r0, #32767
 172 00fc FFF7FEFF 		bl	send_cmd
 173              	.LVL6:
 174 0100 C0F30D00 		ubfx	r0, r0, #0, #14
 175 0104 A4F85800 		strh	r0, [r4, #88]	@ movhi
 205:Generated_Source\PSoC5/tick_isr.c ****     if(joints[2].angle - joints[2].angleOld > 10000){
 176              		.loc 1 205 0
 177 0108 B4F85830 		ldrh	r3, [r4, #88]
 178 010c 1AB2     		sxth	r2, r3
 179 010e B4F85A30 		ldrh	r3, [r4, #90]
 180 0112 1BB2     		sxth	r3, r3
 181 0114 D31A     		subs	r3, r2, r3
 182 0116 42F21072 		movw	r2, #10000
 183 011a 9342     		cmp	r3, r2
 184 011c 0CDD     		ble	.L10
 206:Generated_Source\PSoC5/tick_isr.c ****         //angle decreasing, crossed over 0
 207:Generated_Source\PSoC5/tick_isr.c ****         joints[2].pos = joints[2].pos + (joints[2].angle - (joints[2].angleOld + 16384));
 185              		.loc 1 207 0
 186 011e A06C     		ldr	r0, [r4, #72]
 187 0120 B4F85820 		ldrh	r2, [r4, #88]
 188 0124 12B2     		sxth	r2, r2
 189 0126 B4F85A30 		ldrh	r3, [r4, #90]
 190 012a 1BB2     		sxth	r3, r3
 191 012c 03F58043 		add	r3, r3, #16384
 192 0130 D31A     		subs	r3, r2, r3
ARM GAS  C:\Users\pajoh\AppData\Local\Temp\ccYmRKnf.s 			page 8


 193 0132 0344     		add	r3, r3, r0
 194 0134 A364     		str	r3, [r4, #72]
 195 0136 2EE0     		b	.L11
 196              	.L10:
 208:Generated_Source\PSoC5/tick_isr.c ****     }
 209:Generated_Source\PSoC5/tick_isr.c ****     else if(joints[2].angle - joints[2].angleOld < -10000){
 197              		.loc 1 209 0
 198 0138 2049     		ldr	r1, .L16
 199 013a B1F85830 		ldrh	r3, [r1, #88]
 200 013e 1AB2     		sxth	r2, r3
 201 0140 B1F85A30 		ldrh	r3, [r1, #90]
 202 0144 1BB2     		sxth	r3, r3
 203 0146 D31A     		subs	r3, r2, r3
 204 0148 1F4A     		ldr	r2, .L16+12
 205 014a 9342     		cmp	r3, r2
 206 014c 18DA     		bge	.L12
 210:Generated_Source\PSoC5/tick_isr.c ****         joints[2].pos = joints[2].pos + ((joints[2].angle - joints[2].angleOld) + 16384) % 16384;
 207              		.loc 1 210 0
 208 014e 0846     		mov	r0, r1
 209 0150 8C6C     		ldr	r4, [r1, #72]
 210 0152 B1F85820 		ldrh	r2, [r1, #88]
 211 0156 11B2     		sxth	r1, r2
 212 0158 B0F85A20 		ldrh	r2, [r0, #90]
 213 015c 12B2     		sxth	r2, r2
 214 015e 8A1A     		subs	r2, r1, r2
 215 0160 02F58042 		add	r2, r2, #16384
 216 0164 194B     		ldr	r3, .L16+16
 217 0166 1340     		ands	r3, r3, r2
 218 0168 002B     		cmp	r3, #0
 219 016a 05DA     		bge	.L13
 220 016c 013B     		subs	r3, r3, #1
 221 016e 6FEA8342 		mvn	r2, r3, lsl #18
 222 0172 6FEA9242 		mvn	r2, r2, lsr #18
 223 0176 531C     		adds	r3, r2, #1
 224              	.L13:
 225 0178 2344     		add	r3, r3, r4
 226 017a 104A     		ldr	r2, .L16
 227 017c 9364     		str	r3, [r2, #72]
 228 017e 0AE0     		b	.L11
 229              	.L12:
 211:Generated_Source\PSoC5/tick_isr.c ****     }
 212:Generated_Source\PSoC5/tick_isr.c ****     else{
 213:Generated_Source\PSoC5/tick_isr.c ****         joints[2].pos = joints[2].pos + joints[2].angle - joints[2].angleOld;   
 230              		.loc 1 213 0
 231 0180 0E48     		ldr	r0, .L16
 232 0182 816C     		ldr	r1, [r0, #72]
 233 0184 B0F85830 		ldrh	r3, [r0, #88]
 234 0188 1BB2     		sxth	r3, r3
 235 018a 5A18     		adds	r2, r3, r1
 236 018c B0F85A30 		ldrh	r3, [r0, #90]
 237 0190 1BB2     		sxth	r3, r3
 238 0192 D31A     		subs	r3, r2, r3
 239 0194 8364     		str	r3, [r0, #72]
 240              	.L11:
 214:Generated_Source\PSoC5/tick_isr.c ****     }
 215:Generated_Source\PSoC5/tick_isr.c ****     joints[2].angleOld = joints[2].angle;
 241              		.loc 1 215 0
ARM GAS  C:\Users\pajoh\AppData\Local\Temp\ccYmRKnf.s 			page 9


 242 0196 094B     		ldr	r3, .L16
 243 0198 B3F85820 		ldrh	r2, [r3, #88]
 244 019c A3F85A20 		strh	r2, [r3, #90]	@ movhi
 216:Generated_Source\PSoC5/tick_isr.c ****     
 217:Generated_Source\PSoC5/tick_isr.c ****     //timing for other things
 218:Generated_Source\PSoC5/tick_isr.c ****     tick2 += 1;
 245              		.loc 1 218 0
 246 01a0 0B4A     		ldr	r2, .L16+20
 247 01a2 1378     		ldrb	r3, [r2]	@ zero_extendqisi2
 248 01a4 0133     		adds	r3, r3, #1
 249 01a6 DBB2     		uxtb	r3, r3
 250 01a8 1370     		strb	r3, [r2]
 219:Generated_Source\PSoC5/tick_isr.c ****     if(tick2 >= 10){
 251              		.loc 1 219 0
 252 01aa 092B     		cmp	r3, #9
 253 01ac 05D9     		bls	.L1
 220:Generated_Source\PSoC5/tick_isr.c ****         tick = 1;
 254              		.loc 1 220 0
 255 01ae 0122     		movs	r2, #1
 256 01b0 084B     		ldr	r3, .L16+24
 257 01b2 1A70     		strb	r2, [r3]
 221:Generated_Source\PSoC5/tick_isr.c ****         tick2 = 0;
 258              		.loc 1 221 0
 259 01b4 0022     		movs	r2, #0
 260 01b6 064B     		ldr	r3, .L16+20
 261 01b8 1A70     		strb	r2, [r3]
 262              	.L1:
 263 01ba 10BD     		pop	{r4, pc}
 264              	.L17:
 265              		.align	2
 266              	.L16:
 267 01bc 00000000 		.word	joints
 268 01c0 C9E42800 		.word	2680009
 269 01c4 B6E42800 		.word	2679990
 270 01c8 F0D8FFFF 		.word	-10000
 271 01cc FF3F0080 		.word	-2147467265
 272 01d0 00000000 		.word	.LANCHOR0
 273 01d4 00000000 		.word	tick
 274              		.cfi_endproc
 275              	.LFE67:
 276              		.size	tick_isr_Interrupt, .-tick_isr_Interrupt
 277              		.section	.text.tick_isr_SetVector,"ax",%progbits
 278              		.align	2
 279              		.global	tick_isr_SetVector
 280              		.thumb
 281              		.thumb_func
 282              		.type	tick_isr_SetVector, %function
 283              	tick_isr_SetVector:
 284              	.LFB68:
 222:Generated_Source\PSoC5/tick_isr.c ****     }
 223:Generated_Source\PSoC5/tick_isr.c ****     /* `#END` */
 224:Generated_Source\PSoC5/tick_isr.c **** }
 225:Generated_Source\PSoC5/tick_isr.c **** 
 226:Generated_Source\PSoC5/tick_isr.c **** 
 227:Generated_Source\PSoC5/tick_isr.c **** /*******************************************************************************
 228:Generated_Source\PSoC5/tick_isr.c **** * Function Name: tick_isr_SetVector
 229:Generated_Source\PSoC5/tick_isr.c **** ********************************************************************************
ARM GAS  C:\Users\pajoh\AppData\Local\Temp\ccYmRKnf.s 			page 10


 230:Generated_Source\PSoC5/tick_isr.c **** *
 231:Generated_Source\PSoC5/tick_isr.c **** * Summary:
 232:Generated_Source\PSoC5/tick_isr.c **** *   Change the ISR vector for the Interrupt. Note calling tick_isr_Start
 233:Generated_Source\PSoC5/tick_isr.c **** *   will override any effect this method would have had. To set the vector 
 234:Generated_Source\PSoC5/tick_isr.c **** *   before the component has been started use tick_isr_StartEx instead.
 235:Generated_Source\PSoC5/tick_isr.c **** * 
 236:Generated_Source\PSoC5/tick_isr.c **** *   When defining ISR functions, the CY_ISR and CY_ISR_PROTO macros should be 
 237:Generated_Source\PSoC5/tick_isr.c **** *   used to provide consistent definition across compilers:
 238:Generated_Source\PSoC5/tick_isr.c **** *
 239:Generated_Source\PSoC5/tick_isr.c **** *   Function definition example:
 240:Generated_Source\PSoC5/tick_isr.c **** *   CY_ISR(MyISR)
 241:Generated_Source\PSoC5/tick_isr.c **** *   {
 242:Generated_Source\PSoC5/tick_isr.c **** *   }
 243:Generated_Source\PSoC5/tick_isr.c **** *
 244:Generated_Source\PSoC5/tick_isr.c **** *   Function prototype example:
 245:Generated_Source\PSoC5/tick_isr.c **** *     CY_ISR_PROTO(MyISR);
 246:Generated_Source\PSoC5/tick_isr.c **** *
 247:Generated_Source\PSoC5/tick_isr.c **** * Parameters:
 248:Generated_Source\PSoC5/tick_isr.c **** *   address: Address of the ISR to set in the interrupt vector table.
 249:Generated_Source\PSoC5/tick_isr.c **** *
 250:Generated_Source\PSoC5/tick_isr.c **** * Return:
 251:Generated_Source\PSoC5/tick_isr.c **** *   None
 252:Generated_Source\PSoC5/tick_isr.c **** *
 253:Generated_Source\PSoC5/tick_isr.c **** *******************************************************************************/
 254:Generated_Source\PSoC5/tick_isr.c **** void tick_isr_SetVector(cyisraddress address)
 255:Generated_Source\PSoC5/tick_isr.c **** {
 285              		.loc 1 255 0
 286              		.cfi_startproc
 287              		@ args = 0, pretend = 0, frame = 0
 288              		@ frame_needed = 0, uses_anonymous_args = 0
 289              		@ link register save eliminated.
 290              	.LVL7:
 256:Generated_Source\PSoC5/tick_isr.c ****     cyisraddress * ramVectorTable;
 257:Generated_Source\PSoC5/tick_isr.c **** 
 258:Generated_Source\PSoC5/tick_isr.c ****     ramVectorTable = (cyisraddress *) *CYINT_VECT_TABLE;
 291              		.loc 1 258 0
 292 0000 014B     		ldr	r3, .L19
 293 0002 1B68     		ldr	r3, [r3]
 294              	.LVL8:
 259:Generated_Source\PSoC5/tick_isr.c **** 
 260:Generated_Source\PSoC5/tick_isr.c ****     ramVectorTable[CYINT_IRQ_BASE + (uint32)tick_isr__INTC_NUMBER] = address;
 295              		.loc 1 260 0
 296 0004 9864     		str	r0, [r3, #72]
 297 0006 7047     		bx	lr
 298              	.L20:
 299              		.align	2
 300              	.L19:
 301 0008 08ED00E0 		.word	-536810232
 302              		.cfi_endproc
 303              	.LFE68:
 304              		.size	tick_isr_SetVector, .-tick_isr_SetVector
 305              		.section	.text.tick_isr_GetVector,"ax",%progbits
 306              		.align	2
 307              		.global	tick_isr_GetVector
 308              		.thumb
 309              		.thumb_func
 310              		.type	tick_isr_GetVector, %function
ARM GAS  C:\Users\pajoh\AppData\Local\Temp\ccYmRKnf.s 			page 11


 311              	tick_isr_GetVector:
 312              	.LFB69:
 261:Generated_Source\PSoC5/tick_isr.c **** }
 262:Generated_Source\PSoC5/tick_isr.c **** 
 263:Generated_Source\PSoC5/tick_isr.c **** 
 264:Generated_Source\PSoC5/tick_isr.c **** /*******************************************************************************
 265:Generated_Source\PSoC5/tick_isr.c **** * Function Name: tick_isr_GetVector
 266:Generated_Source\PSoC5/tick_isr.c **** ********************************************************************************
 267:Generated_Source\PSoC5/tick_isr.c **** *
 268:Generated_Source\PSoC5/tick_isr.c **** * Summary:
 269:Generated_Source\PSoC5/tick_isr.c **** *   Gets the "address" of the current ISR vector for the Interrupt.
 270:Generated_Source\PSoC5/tick_isr.c **** *
 271:Generated_Source\PSoC5/tick_isr.c **** * Parameters:
 272:Generated_Source\PSoC5/tick_isr.c **** *   None
 273:Generated_Source\PSoC5/tick_isr.c **** *
 274:Generated_Source\PSoC5/tick_isr.c **** * Return:
 275:Generated_Source\PSoC5/tick_isr.c **** *   Address of the ISR in the interrupt vector table.
 276:Generated_Source\PSoC5/tick_isr.c **** *
 277:Generated_Source\PSoC5/tick_isr.c **** *******************************************************************************/
 278:Generated_Source\PSoC5/tick_isr.c **** cyisraddress tick_isr_GetVector(void)
 279:Generated_Source\PSoC5/tick_isr.c **** {
 313              		.loc 1 279 0
 314              		.cfi_startproc
 315              		@ args = 0, pretend = 0, frame = 0
 316              		@ frame_needed = 0, uses_anonymous_args = 0
 317              		@ link register save eliminated.
 280:Generated_Source\PSoC5/tick_isr.c ****     cyisraddress * ramVectorTable;
 281:Generated_Source\PSoC5/tick_isr.c **** 
 282:Generated_Source\PSoC5/tick_isr.c ****     ramVectorTable = (cyisraddress *) *CYINT_VECT_TABLE;
 318              		.loc 1 282 0
 319 0000 014B     		ldr	r3, .L22
 320 0002 1B68     		ldr	r3, [r3]
 321              	.LVL9:
 283:Generated_Source\PSoC5/tick_isr.c **** 
 284:Generated_Source\PSoC5/tick_isr.c ****     return ramVectorTable[CYINT_IRQ_BASE + (uint32)tick_isr__INTC_NUMBER];
 285:Generated_Source\PSoC5/tick_isr.c **** }
 322              		.loc 1 285 0
 323 0004 986C     		ldr	r0, [r3, #72]
 324 0006 7047     		bx	lr
 325              	.L23:
 326              		.align	2
 327              	.L22:
 328 0008 08ED00E0 		.word	-536810232
 329              		.cfi_endproc
 330              	.LFE69:
 331              		.size	tick_isr_GetVector, .-tick_isr_GetVector
 332              		.section	.text.tick_isr_SetPriority,"ax",%progbits
 333              		.align	2
 334              		.global	tick_isr_SetPriority
 335              		.thumb
 336              		.thumb_func
 337              		.type	tick_isr_SetPriority, %function
 338              	tick_isr_SetPriority:
 339              	.LFB70:
 286:Generated_Source\PSoC5/tick_isr.c **** 
 287:Generated_Source\PSoC5/tick_isr.c **** 
 288:Generated_Source\PSoC5/tick_isr.c **** /*******************************************************************************
ARM GAS  C:\Users\pajoh\AppData\Local\Temp\ccYmRKnf.s 			page 12


 289:Generated_Source\PSoC5/tick_isr.c **** * Function Name: tick_isr_SetPriority
 290:Generated_Source\PSoC5/tick_isr.c **** ********************************************************************************
 291:Generated_Source\PSoC5/tick_isr.c **** *
 292:Generated_Source\PSoC5/tick_isr.c **** * Summary:
 293:Generated_Source\PSoC5/tick_isr.c **** *   Sets the Priority of the Interrupt. 
 294:Generated_Source\PSoC5/tick_isr.c **** *
 295:Generated_Source\PSoC5/tick_isr.c **** *   Note calling tick_isr_Start or tick_isr_StartEx will 
 296:Generated_Source\PSoC5/tick_isr.c **** *   override any effect this API would have had. This API should only be called
 297:Generated_Source\PSoC5/tick_isr.c **** *   after tick_isr_Start or tick_isr_StartEx has been called. 
 298:Generated_Source\PSoC5/tick_isr.c **** *   To set the initial priority for the component, use the Design-Wide Resources
 299:Generated_Source\PSoC5/tick_isr.c **** *   Interrupt Editor.
 300:Generated_Source\PSoC5/tick_isr.c **** *
 301:Generated_Source\PSoC5/tick_isr.c **** *   Note This API has no effect on Non-maskable interrupt NMI).
 302:Generated_Source\PSoC5/tick_isr.c **** *
 303:Generated_Source\PSoC5/tick_isr.c **** * Parameters:
 304:Generated_Source\PSoC5/tick_isr.c **** *   priority: Priority of the interrupt, 0 being the highest priority
 305:Generated_Source\PSoC5/tick_isr.c **** *             PSoC 3 and PSoC 5LP: Priority is from 0 to 7.
 306:Generated_Source\PSoC5/tick_isr.c **** *             PSoC 4: Priority is from 0 to 3.
 307:Generated_Source\PSoC5/tick_isr.c **** *
 308:Generated_Source\PSoC5/tick_isr.c **** * Return:
 309:Generated_Source\PSoC5/tick_isr.c **** *   None
 310:Generated_Source\PSoC5/tick_isr.c **** *
 311:Generated_Source\PSoC5/tick_isr.c **** *******************************************************************************/
 312:Generated_Source\PSoC5/tick_isr.c **** void tick_isr_SetPriority(uint8 priority)
 313:Generated_Source\PSoC5/tick_isr.c **** {
 340              		.loc 1 313 0
 341              		.cfi_startproc
 342              		@ args = 0, pretend = 0, frame = 0
 343              		@ frame_needed = 0, uses_anonymous_args = 0
 344              		@ link register save eliminated.
 345              	.LVL10:
 314:Generated_Source\PSoC5/tick_isr.c ****     *tick_isr_INTC_PRIOR = priority << 5;
 346              		.loc 1 314 0
 347 0000 4001     		lsls	r0, r0, #5
 348              	.LVL11:
 349 0002 C0B2     		uxtb	r0, r0
 350 0004 014B     		ldr	r3, .L25
 351 0006 1870     		strb	r0, [r3]
 352 0008 7047     		bx	lr
 353              	.L26:
 354 000a 00BF     		.align	2
 355              	.L25:
 356 000c 02E400E0 		.word	-536812542
 357              		.cfi_endproc
 358              	.LFE70:
 359              		.size	tick_isr_SetPriority, .-tick_isr_SetPriority
 360              		.section	.text.tick_isr_GetPriority,"ax",%progbits
 361              		.align	2
 362              		.global	tick_isr_GetPriority
 363              		.thumb
 364              		.thumb_func
 365              		.type	tick_isr_GetPriority, %function
 366              	tick_isr_GetPriority:
 367              	.LFB71:
 315:Generated_Source\PSoC5/tick_isr.c **** }
 316:Generated_Source\PSoC5/tick_isr.c **** 
 317:Generated_Source\PSoC5/tick_isr.c **** 
ARM GAS  C:\Users\pajoh\AppData\Local\Temp\ccYmRKnf.s 			page 13


 318:Generated_Source\PSoC5/tick_isr.c **** /*******************************************************************************
 319:Generated_Source\PSoC5/tick_isr.c **** * Function Name: tick_isr_GetPriority
 320:Generated_Source\PSoC5/tick_isr.c **** ********************************************************************************
 321:Generated_Source\PSoC5/tick_isr.c **** *
 322:Generated_Source\PSoC5/tick_isr.c **** * Summary:
 323:Generated_Source\PSoC5/tick_isr.c **** *   Gets the Priority of the Interrupt.
 324:Generated_Source\PSoC5/tick_isr.c **** *
 325:Generated_Source\PSoC5/tick_isr.c **** * Parameters:
 326:Generated_Source\PSoC5/tick_isr.c **** *   None
 327:Generated_Source\PSoC5/tick_isr.c **** *
 328:Generated_Source\PSoC5/tick_isr.c **** * Return:
 329:Generated_Source\PSoC5/tick_isr.c **** *   Priority of the interrupt, 0 being the highest priority
 330:Generated_Source\PSoC5/tick_isr.c **** *    PSoC 3 and PSoC 5LP: Priority is from 0 to 7.
 331:Generated_Source\PSoC5/tick_isr.c **** *    PSoC 4: Priority is from 0 to 3.
 332:Generated_Source\PSoC5/tick_isr.c **** *
 333:Generated_Source\PSoC5/tick_isr.c **** *******************************************************************************/
 334:Generated_Source\PSoC5/tick_isr.c **** uint8 tick_isr_GetPriority(void)
 335:Generated_Source\PSoC5/tick_isr.c **** {
 368              		.loc 1 335 0
 369              		.cfi_startproc
 370              		@ args = 0, pretend = 0, frame = 0
 371              		@ frame_needed = 0, uses_anonymous_args = 0
 372              		@ link register save eliminated.
 336:Generated_Source\PSoC5/tick_isr.c ****     uint8 priority;
 337:Generated_Source\PSoC5/tick_isr.c **** 
 338:Generated_Source\PSoC5/tick_isr.c **** 
 339:Generated_Source\PSoC5/tick_isr.c ****     priority = *tick_isr_INTC_PRIOR >> 5;
 373              		.loc 1 339 0
 374 0000 014B     		ldr	r3, .L28
 375 0002 1878     		ldrb	r0, [r3]	@ zero_extendqisi2
 376              	.LVL12:
 340:Generated_Source\PSoC5/tick_isr.c **** 
 341:Generated_Source\PSoC5/tick_isr.c ****     return priority;
 342:Generated_Source\PSoC5/tick_isr.c **** }
 377              		.loc 1 342 0
 378 0004 4009     		lsrs	r0, r0, #5
 379              	.LVL13:
 380 0006 7047     		bx	lr
 381              	.L29:
 382              		.align	2
 383              	.L28:
 384 0008 02E400E0 		.word	-536812542
 385              		.cfi_endproc
 386              	.LFE71:
 387              		.size	tick_isr_GetPriority, .-tick_isr_GetPriority
 388              		.section	.text.tick_isr_Enable,"ax",%progbits
 389              		.align	2
 390              		.global	tick_isr_Enable
 391              		.thumb
 392              		.thumb_func
 393              		.type	tick_isr_Enable, %function
 394              	tick_isr_Enable:
 395              	.LFB72:
 343:Generated_Source\PSoC5/tick_isr.c **** 
 344:Generated_Source\PSoC5/tick_isr.c **** 
 345:Generated_Source\PSoC5/tick_isr.c **** /*******************************************************************************
 346:Generated_Source\PSoC5/tick_isr.c **** * Function Name: tick_isr_Enable
ARM GAS  C:\Users\pajoh\AppData\Local\Temp\ccYmRKnf.s 			page 14


 347:Generated_Source\PSoC5/tick_isr.c **** ********************************************************************************
 348:Generated_Source\PSoC5/tick_isr.c **** *
 349:Generated_Source\PSoC5/tick_isr.c **** * Summary:
 350:Generated_Source\PSoC5/tick_isr.c **** *   Enables the interrupt to the interrupt controller. Do not call this function
 351:Generated_Source\PSoC5/tick_isr.c **** *   unless ISR_Start() has been called or the functionality of the ISR_Start() 
 352:Generated_Source\PSoC5/tick_isr.c **** *   function, which sets the vector and the priority, has been called.
 353:Generated_Source\PSoC5/tick_isr.c **** *
 354:Generated_Source\PSoC5/tick_isr.c **** * Parameters:
 355:Generated_Source\PSoC5/tick_isr.c **** *   None
 356:Generated_Source\PSoC5/tick_isr.c **** *
 357:Generated_Source\PSoC5/tick_isr.c **** * Return:
 358:Generated_Source\PSoC5/tick_isr.c **** *   None
 359:Generated_Source\PSoC5/tick_isr.c **** *
 360:Generated_Source\PSoC5/tick_isr.c **** *******************************************************************************/
 361:Generated_Source\PSoC5/tick_isr.c **** void tick_isr_Enable(void)
 362:Generated_Source\PSoC5/tick_isr.c **** {
 396              		.loc 1 362 0
 397              		.cfi_startproc
 398              		@ args = 0, pretend = 0, frame = 0
 399              		@ frame_needed = 0, uses_anonymous_args = 0
 400              		@ link register save eliminated.
 363:Generated_Source\PSoC5/tick_isr.c ****     /* Enable the general interrupt. */
 364:Generated_Source\PSoC5/tick_isr.c ****     *tick_isr_INTC_SET_EN = tick_isr__INTC_MASK;
 401              		.loc 1 364 0
 402 0000 0422     		movs	r2, #4
 403 0002 014B     		ldr	r3, .L31
 404 0004 1A60     		str	r2, [r3]
 405 0006 7047     		bx	lr
 406              	.L32:
 407              		.align	2
 408              	.L31:
 409 0008 00E100E0 		.word	-536813312
 410              		.cfi_endproc
 411              	.LFE72:
 412              		.size	tick_isr_Enable, .-tick_isr_Enable
 413              		.section	.text.tick_isr_GetState,"ax",%progbits
 414              		.align	2
 415              		.global	tick_isr_GetState
 416              		.thumb
 417              		.thumb_func
 418              		.type	tick_isr_GetState, %function
 419              	tick_isr_GetState:
 420              	.LFB73:
 365:Generated_Source\PSoC5/tick_isr.c **** }
 366:Generated_Source\PSoC5/tick_isr.c **** 
 367:Generated_Source\PSoC5/tick_isr.c **** 
 368:Generated_Source\PSoC5/tick_isr.c **** /*******************************************************************************
 369:Generated_Source\PSoC5/tick_isr.c **** * Function Name: tick_isr_GetState
 370:Generated_Source\PSoC5/tick_isr.c **** ********************************************************************************
 371:Generated_Source\PSoC5/tick_isr.c **** *
 372:Generated_Source\PSoC5/tick_isr.c **** * Summary:
 373:Generated_Source\PSoC5/tick_isr.c **** *   Gets the state (enabled, disabled) of the Interrupt.
 374:Generated_Source\PSoC5/tick_isr.c **** *
 375:Generated_Source\PSoC5/tick_isr.c **** * Parameters:
 376:Generated_Source\PSoC5/tick_isr.c **** *   None
 377:Generated_Source\PSoC5/tick_isr.c **** *
 378:Generated_Source\PSoC5/tick_isr.c **** * Return:
ARM GAS  C:\Users\pajoh\AppData\Local\Temp\ccYmRKnf.s 			page 15


 379:Generated_Source\PSoC5/tick_isr.c **** *   1 if enabled, 0 if disabled.
 380:Generated_Source\PSoC5/tick_isr.c **** *
 381:Generated_Source\PSoC5/tick_isr.c **** *******************************************************************************/
 382:Generated_Source\PSoC5/tick_isr.c **** uint8 tick_isr_GetState(void)
 383:Generated_Source\PSoC5/tick_isr.c **** {
 421              		.loc 1 383 0
 422              		.cfi_startproc
 423              		@ args = 0, pretend = 0, frame = 0
 424              		@ frame_needed = 0, uses_anonymous_args = 0
 425              		@ link register save eliminated.
 384:Generated_Source\PSoC5/tick_isr.c ****     /* Get the state of the general interrupt. */
 385:Generated_Source\PSoC5/tick_isr.c ****     return ((*tick_isr_INTC_SET_EN & (uint32)tick_isr__INTC_MASK) != 0u) ? 1u:0u;
 426              		.loc 1 385 0
 427 0000 044B     		ldr	r3, .L36
 428 0002 1B68     		ldr	r3, [r3]
 429 0004 13F0040F 		tst	r3, #4
 430 0008 01D0     		beq	.L35
 431 000a 0120     		movs	r0, #1
 432 000c 7047     		bx	lr
 433              	.L35:
 434 000e 0020     		movs	r0, #0
 386:Generated_Source\PSoC5/tick_isr.c **** }
 435              		.loc 1 386 0
 436 0010 7047     		bx	lr
 437              	.L37:
 438 0012 00BF     		.align	2
 439              	.L36:
 440 0014 00E100E0 		.word	-536813312
 441              		.cfi_endproc
 442              	.LFE73:
 443              		.size	tick_isr_GetState, .-tick_isr_GetState
 444              		.section	.text.tick_isr_Disable,"ax",%progbits
 445              		.align	2
 446              		.global	tick_isr_Disable
 447              		.thumb
 448              		.thumb_func
 449              		.type	tick_isr_Disable, %function
 450              	tick_isr_Disable:
 451              	.LFB74:
 387:Generated_Source\PSoC5/tick_isr.c **** 
 388:Generated_Source\PSoC5/tick_isr.c **** 
 389:Generated_Source\PSoC5/tick_isr.c **** /*******************************************************************************
 390:Generated_Source\PSoC5/tick_isr.c **** * Function Name: tick_isr_Disable
 391:Generated_Source\PSoC5/tick_isr.c **** ********************************************************************************
 392:Generated_Source\PSoC5/tick_isr.c **** *
 393:Generated_Source\PSoC5/tick_isr.c **** * Summary:
 394:Generated_Source\PSoC5/tick_isr.c **** *   Disables the Interrupt in the interrupt controller.
 395:Generated_Source\PSoC5/tick_isr.c **** *
 396:Generated_Source\PSoC5/tick_isr.c **** * Parameters:
 397:Generated_Source\PSoC5/tick_isr.c **** *   None
 398:Generated_Source\PSoC5/tick_isr.c **** *
 399:Generated_Source\PSoC5/tick_isr.c **** * Return:
 400:Generated_Source\PSoC5/tick_isr.c **** *   None
 401:Generated_Source\PSoC5/tick_isr.c **** *
 402:Generated_Source\PSoC5/tick_isr.c **** *******************************************************************************/
 403:Generated_Source\PSoC5/tick_isr.c **** void tick_isr_Disable(void)
 404:Generated_Source\PSoC5/tick_isr.c **** {
ARM GAS  C:\Users\pajoh\AppData\Local\Temp\ccYmRKnf.s 			page 16


 452              		.loc 1 404 0
 453              		.cfi_startproc
 454              		@ args = 0, pretend = 0, frame = 0
 455              		@ frame_needed = 0, uses_anonymous_args = 0
 456              		@ link register save eliminated.
 405:Generated_Source\PSoC5/tick_isr.c ****     /* Disable the general interrupt. */
 406:Generated_Source\PSoC5/tick_isr.c ****     *tick_isr_INTC_CLR_EN = tick_isr__INTC_MASK;
 457              		.loc 1 406 0
 458 0000 0422     		movs	r2, #4
 459 0002 014B     		ldr	r3, .L39
 460 0004 1A60     		str	r2, [r3]
 461 0006 7047     		bx	lr
 462              	.L40:
 463              		.align	2
 464              	.L39:
 465 0008 80E100E0 		.word	-536813184
 466              		.cfi_endproc
 467              	.LFE74:
 468              		.size	tick_isr_Disable, .-tick_isr_Disable
 469              		.section	.text.tick_isr_Start,"ax",%progbits
 470              		.align	2
 471              		.global	tick_isr_Start
 472              		.thumb
 473              		.thumb_func
 474              		.type	tick_isr_Start, %function
 475              	tick_isr_Start:
 476              	.LFB64:
  65:Generated_Source\PSoC5/tick_isr.c ****     /* For all we know the interrupt is active. */
 477              		.loc 1 65 0
 478              		.cfi_startproc
 479              		@ args = 0, pretend = 0, frame = 0
 480              		@ frame_needed = 0, uses_anonymous_args = 0
 481 0000 08B5     		push	{r3, lr}
 482              		.cfi_def_cfa_offset 8
 483              		.cfi_offset 3, -8
 484              		.cfi_offset 14, -4
  67:Generated_Source\PSoC5/tick_isr.c **** 
 485              		.loc 1 67 0
 486 0002 FFF7FEFF 		bl	tick_isr_Disable
 487              	.LVL14:
  70:Generated_Source\PSoC5/tick_isr.c **** 
 488              		.loc 1 70 0
 489 0006 0448     		ldr	r0, .L43
 490 0008 FFF7FEFF 		bl	tick_isr_SetVector
 491              	.LVL15:
  73:Generated_Source\PSoC5/tick_isr.c **** 
 492              		.loc 1 73 0
 493 000c 0720     		movs	r0, #7
 494 000e FFF7FEFF 		bl	tick_isr_SetPriority
 495              	.LVL16:
  76:Generated_Source\PSoC5/tick_isr.c **** }
 496              		.loc 1 76 0
 497 0012 FFF7FEFF 		bl	tick_isr_Enable
 498              	.LVL17:
 499 0016 08BD     		pop	{r3, pc}
 500              	.L44:
 501              		.align	2
ARM GAS  C:\Users\pajoh\AppData\Local\Temp\ccYmRKnf.s 			page 17


 502              	.L43:
 503 0018 00000000 		.word	tick_isr_Interrupt
 504              		.cfi_endproc
 505              	.LFE64:
 506              		.size	tick_isr_Start, .-tick_isr_Start
 507              		.section	.text.tick_isr_StartEx,"ax",%progbits
 508              		.align	2
 509              		.global	tick_isr_StartEx
 510              		.thumb
 511              		.thumb_func
 512              		.type	tick_isr_StartEx, %function
 513              	tick_isr_StartEx:
 514              	.LFB65:
 108:Generated_Source\PSoC5/tick_isr.c ****     /* For all we know the interrupt is active. */
 515              		.loc 1 108 0
 516              		.cfi_startproc
 517              		@ args = 0, pretend = 0, frame = 0
 518              		@ frame_needed = 0, uses_anonymous_args = 0
 519              	.LVL18:
 520 0000 10B5     		push	{r4, lr}
 521              		.cfi_def_cfa_offset 8
 522              		.cfi_offset 4, -8
 523              		.cfi_offset 14, -4
 524 0002 0446     		mov	r4, r0
 110:Generated_Source\PSoC5/tick_isr.c **** 
 525              		.loc 1 110 0
 526 0004 FFF7FEFF 		bl	tick_isr_Disable
 527              	.LVL19:
 113:Generated_Source\PSoC5/tick_isr.c **** 
 528              		.loc 1 113 0
 529 0008 2046     		mov	r0, r4
 530 000a FFF7FEFF 		bl	tick_isr_SetVector
 531              	.LVL20:
 116:Generated_Source\PSoC5/tick_isr.c **** 
 532              		.loc 1 116 0
 533 000e 0720     		movs	r0, #7
 534 0010 FFF7FEFF 		bl	tick_isr_SetPriority
 535              	.LVL21:
 119:Generated_Source\PSoC5/tick_isr.c **** }
 536              		.loc 1 119 0
 537 0014 FFF7FEFF 		bl	tick_isr_Enable
 538              	.LVL22:
 539 0018 10BD     		pop	{r4, pc}
 540              		.cfi_endproc
 541              	.LFE65:
 542              		.size	tick_isr_StartEx, .-tick_isr_StartEx
 543 001a 00BF     		.section	.text.tick_isr_Stop,"ax",%progbits
 544              		.align	2
 545              		.global	tick_isr_Stop
 546              		.thumb
 547              		.thumb_func
 548              		.type	tick_isr_Stop, %function
 549              	tick_isr_Stop:
 550              	.LFB66:
 138:Generated_Source\PSoC5/tick_isr.c ****     /* Disable this interrupt. */
 551              		.loc 1 138 0
 552              		.cfi_startproc
ARM GAS  C:\Users\pajoh\AppData\Local\Temp\ccYmRKnf.s 			page 18


 553              		@ args = 0, pretend = 0, frame = 0
 554              		@ frame_needed = 0, uses_anonymous_args = 0
 555 0000 08B5     		push	{r3, lr}
 556              		.cfi_def_cfa_offset 8
 557              		.cfi_offset 3, -8
 558              		.cfi_offset 14, -4
 140:Generated_Source\PSoC5/tick_isr.c **** 
 559              		.loc 1 140 0
 560 0002 FFF7FEFF 		bl	tick_isr_Disable
 561              	.LVL23:
 143:Generated_Source\PSoC5/tick_isr.c **** }
 562              		.loc 1 143 0
 563 0006 0248     		ldr	r0, .L49
 564 0008 FFF7FEFF 		bl	tick_isr_SetVector
 565              	.LVL24:
 566 000c 08BD     		pop	{r3, pc}
 567              	.L50:
 568 000e 00BF     		.align	2
 569              	.L49:
 570 0010 00000000 		.word	IntDefaultHandler
 571              		.cfi_endproc
 572              	.LFE66:
 573              		.size	tick_isr_Stop, .-tick_isr_Stop
 574              		.section	.text.tick_isr_SetPending,"ax",%progbits
 575              		.align	2
 576              		.global	tick_isr_SetPending
 577              		.thumb
 578              		.thumb_func
 579              		.type	tick_isr_SetPending, %function
 580              	tick_isr_SetPending:
 581              	.LFB75:
 407:Generated_Source\PSoC5/tick_isr.c **** }
 408:Generated_Source\PSoC5/tick_isr.c **** 
 409:Generated_Source\PSoC5/tick_isr.c **** 
 410:Generated_Source\PSoC5/tick_isr.c **** /*******************************************************************************
 411:Generated_Source\PSoC5/tick_isr.c **** * Function Name: tick_isr_SetPending
 412:Generated_Source\PSoC5/tick_isr.c **** ********************************************************************************
 413:Generated_Source\PSoC5/tick_isr.c **** *
 414:Generated_Source\PSoC5/tick_isr.c **** * Summary:
 415:Generated_Source\PSoC5/tick_isr.c **** *   Causes the Interrupt to enter the pending state, a software method of
 416:Generated_Source\PSoC5/tick_isr.c **** *   generating the interrupt.
 417:Generated_Source\PSoC5/tick_isr.c **** *
 418:Generated_Source\PSoC5/tick_isr.c **** * Parameters:
 419:Generated_Source\PSoC5/tick_isr.c **** *   None
 420:Generated_Source\PSoC5/tick_isr.c **** *
 421:Generated_Source\PSoC5/tick_isr.c **** * Return:
 422:Generated_Source\PSoC5/tick_isr.c **** *   None
 423:Generated_Source\PSoC5/tick_isr.c **** *
 424:Generated_Source\PSoC5/tick_isr.c **** * Side Effects:
 425:Generated_Source\PSoC5/tick_isr.c **** *   If interrupts are enabled and the interrupt is set up properly, the ISR is
 426:Generated_Source\PSoC5/tick_isr.c **** *   entered (depending on the priority of this interrupt and other pending 
 427:Generated_Source\PSoC5/tick_isr.c **** *   interrupts).
 428:Generated_Source\PSoC5/tick_isr.c **** *
 429:Generated_Source\PSoC5/tick_isr.c **** *******************************************************************************/
 430:Generated_Source\PSoC5/tick_isr.c **** void tick_isr_SetPending(void)
 431:Generated_Source\PSoC5/tick_isr.c **** {
 582              		.loc 1 431 0
ARM GAS  C:\Users\pajoh\AppData\Local\Temp\ccYmRKnf.s 			page 19


 583              		.cfi_startproc
 584              		@ args = 0, pretend = 0, frame = 0
 585              		@ frame_needed = 0, uses_anonymous_args = 0
 586              		@ link register save eliminated.
 432:Generated_Source\PSoC5/tick_isr.c ****     *tick_isr_INTC_SET_PD = tick_isr__INTC_MASK;
 587              		.loc 1 432 0
 588 0000 0422     		movs	r2, #4
 589 0002 014B     		ldr	r3, .L52
 590 0004 1A60     		str	r2, [r3]
 591 0006 7047     		bx	lr
 592              	.L53:
 593              		.align	2
 594              	.L52:
 595 0008 00E200E0 		.word	-536813056
 596              		.cfi_endproc
 597              	.LFE75:
 598              		.size	tick_isr_SetPending, .-tick_isr_SetPending
 599              		.section	.text.tick_isr_ClearPending,"ax",%progbits
 600              		.align	2
 601              		.global	tick_isr_ClearPending
 602              		.thumb
 603              		.thumb_func
 604              		.type	tick_isr_ClearPending, %function
 605              	tick_isr_ClearPending:
 606              	.LFB76:
 433:Generated_Source\PSoC5/tick_isr.c **** }
 434:Generated_Source\PSoC5/tick_isr.c **** 
 435:Generated_Source\PSoC5/tick_isr.c **** 
 436:Generated_Source\PSoC5/tick_isr.c **** /*******************************************************************************
 437:Generated_Source\PSoC5/tick_isr.c **** * Function Name: tick_isr_ClearPending
 438:Generated_Source\PSoC5/tick_isr.c **** ********************************************************************************
 439:Generated_Source\PSoC5/tick_isr.c **** *
 440:Generated_Source\PSoC5/tick_isr.c **** * Summary:
 441:Generated_Source\PSoC5/tick_isr.c **** *   Clears a pending interrupt in the interrupt controller.
 442:Generated_Source\PSoC5/tick_isr.c **** *
 443:Generated_Source\PSoC5/tick_isr.c **** *   Note Some interrupt sources are clear-on-read and require the block 
 444:Generated_Source\PSoC5/tick_isr.c **** *   interrupt/status register to be read/cleared with the appropriate block API 
 445:Generated_Source\PSoC5/tick_isr.c **** *   (GPIO, UART, and so on). Otherwise the ISR will continue to remain in 
 446:Generated_Source\PSoC5/tick_isr.c **** *   pending state even though the interrupt itself is cleared using this API.
 447:Generated_Source\PSoC5/tick_isr.c **** *
 448:Generated_Source\PSoC5/tick_isr.c **** * Parameters:
 449:Generated_Source\PSoC5/tick_isr.c **** *   None
 450:Generated_Source\PSoC5/tick_isr.c **** *
 451:Generated_Source\PSoC5/tick_isr.c **** * Return:
 452:Generated_Source\PSoC5/tick_isr.c **** *   None
 453:Generated_Source\PSoC5/tick_isr.c **** *
 454:Generated_Source\PSoC5/tick_isr.c **** *******************************************************************************/
 455:Generated_Source\PSoC5/tick_isr.c **** void tick_isr_ClearPending(void)
 456:Generated_Source\PSoC5/tick_isr.c **** {
 607              		.loc 1 456 0
 608              		.cfi_startproc
 609              		@ args = 0, pretend = 0, frame = 0
 610              		@ frame_needed = 0, uses_anonymous_args = 0
 611              		@ link register save eliminated.
 457:Generated_Source\PSoC5/tick_isr.c ****     *tick_isr_INTC_CLR_PD = tick_isr__INTC_MASK;
 612              		.loc 1 457 0
 613 0000 0422     		movs	r2, #4
ARM GAS  C:\Users\pajoh\AppData\Local\Temp\ccYmRKnf.s 			page 20


 614 0002 014B     		ldr	r3, .L55
 615 0004 1A60     		str	r2, [r3]
 616 0006 7047     		bx	lr
 617              	.L56:
 618              		.align	2
 619              	.L55:
 620 0008 80E200E0 		.word	-536812928
 621              		.cfi_endproc
 622              	.LFE76:
 623              		.size	tick_isr_ClearPending, .-tick_isr_ClearPending
 624              		.global	tick2
 625              		.comm	joints,96,4
 626              		.comm	J1_home,4,4
 627              		.comm	rx_index,4,4
 628              		.comm	rx_buffer,80,4
 629              		.comm	move_queue,1208,4
 630              		.comm	msg_buff,2006,4
 631              		.comm	read_angle_command,2,2
 632              		.bss
 633              		.set	.LANCHOR0,. + 0
 634              		.type	tick2, %object
 635              		.size	tick2, 1
 636              	tick2:
 637 0000 00       		.space	1
 638              		.text
 639              	.Letext0:
 640              		.file 2 "c:\\program files (x86)\\cypress\\psoc creator\\4.2\\psoc creator\\import\\gnu\\arm\\5.4.
 641              		.file 3 "c:\\program files (x86)\\cypress\\psoc creator\\4.2\\psoc creator\\import\\gnu\\arm\\5.4.
 642              		.file 4 "Generated_Source\\PSoC5/cytypes.h"
 643              		.file 5 "./comms.h"
 644              		.file 6 "./joints.h"
 645              		.file 7 "Generated_Source\\PSoC5/core_cm3.h"
 646              		.file 8 "./as5048.h"
 647              		.file 9 "Generated_Source\\PSoC5\\ADC_DelSig_1.h"
 648              		.file 10 "Generated_Source\\PSoC5\\J2_LIM.h"
 649              		.file 11 "Generated_Source\\PSoC5\\J3_LIM.h"